(dp0
S'remotes'
p1
(dp2
I01
(dp3
S'yes/URC-39765_B00'
p4
NssS'hp'
p5
(dp6
S'hp/hp-465539'
p7
NsS'hp/RC1762307-01'
p8
NsS'hp/RC2234302-01B.lircd.conf'
p9
NsS'hp/DV4-1125NR'
p10
NsS'hp/RC1762302-00'
p11
NsS'hp/Pavilion_m7682.fr'
p12
NsS'hp/RC180491206'
p13
NsS'hp/HSTNN-PRO7'
p14
NsS'hp/DV6331'
p15
NsS'hp/RC1762308-01B'
p16
NssS'abit'
p17
(dp18
S'abit/AU10'
p19
NssS'fisher_price'
p20
(dp21
S'fisher_price/C0108'
p22
NssS'ge'
p23
(dp24
S'ge/UNIVERSAL'
p25
NsS'ge/VKFS0938'
p26
NsS'ge/TV-25CT511'
p27
NsS'ge/VCR'
p28
NssS'ciat'
p29
(dp30
S'ciat/6711A20026G'
p31
NssS'century_concept'
p32
(dp33
S'century_concept/PS2-0001'
p34
NssS'eagle_aspen'
p35
(dp36
S'eagle_aspen/ROTR10'
p37
NssS'captain'
p38
(dp39
S'captain/7100usb'
p40
NssS'lenco'
p41
(dp42
S'lenco/PPS_2024_CD'
p43
NssS'sonicview'
p44
(dp45
S'sonicview/SV-1000'
p46
NsS'sonicview/SV-360'
p47
NssS'chinon'
p48
(dp49
S'chinon/CDS-430'
p50
NssS'jvc'
p51
(dp52
S'jvc/PQ10779'
p53
NsS'jvc/SXV037J'
p54
NsS'jvc/Dish_Network'
p55
NsS'jvc/PQ11534.irman'
p56
NsS'jvc/RM-RXQ1002'
p57
NsS'jvc/RM-C601.irman'
p58
NsS'jvc/PQ21953A'
p59
NsS'jvc/PQ21953F'
p60
NsS'jvc/LP20106-002'
p61
NsS'jvc/LP20337-004.irman'
p62
S'jvc/LP20337-004.jpg'
p63
sS'jvc/RM-SEMX-44U.irman'
p64
NsS'jvc/RM-SFSG5J'
p65
NsS'jvc/HR-S7600U'
p66
NsS'jvc/RM-C410'
p67
NsS'jvc/LP20878-009'
p68
NsS'jvc/RM-SED60TU'
p69
NsS'jvc/HR-J52MS'
p70
NsS'jvc/RM-C388.irman'
p71
NsS'jvc/RM-RXUA4'
p72
NsS'jvc/RM-RK50'
p73
NsS'jvc/LP20878-014-VCR'
p74
NsS'jvc/RM-SEEXA1R'
p75
NsS'jvc/LP20465-005'
p76
NsS'jvc/RM-SUXP5R'
p77
NsS'jvc/RM-SRX5022U'
p78
NsS'jvc/RM-SMXJ100E'
p79
NsS'jvc/RM-SEMXS3U'
p80
NsS'jvc/RM-SUXS57R'
p81
NsS'jvc/RM-SVSDT6R'
p82
NsS'jvc/RM-C678'
p83
NsS'jvc/RM-RP610'
p84
NsS'jvc/CA_E33'
p85
NsS'jvc/RM-SXV008J'
p86
NsS'jvc/RM-C530'
p87
NsS'jvc/RM-SE31'
p88
NsS'jvc/RM-C670'
p89
NsS'jvc/RM-RX130'
p90
NsS'jvc/JX-S700'
p91
NsS'jvc/RM-SA5U'
p92
NsS'jvc/LP20878-016'
p93
NsS'jvc/RM-SX263U'
p94
NsS'jvc/LP21036-039'
p95
NsS'jvc/RM-RXUV5R'
p96
NsS'jvc/RM-C360'
p97
NsS'jvc/RM-RXUV9RMD'
p98
NsS'jvc/100331-AA'
p99
NsS'jvc/RM-SXVS40A'
p100
NsS'jvc/RM-V1E'
p101
NsS'jvc/RM-C1100'
p102
NsS'jvc/PQ10344CG'
p103
NsS'jvc/PQ11534'
p104
NsS'jvc/RM-SEMXS6U'
p105
NsS'jvc/RM-SXV08J'
p106
NsS'jvc/RM-SR518U'
p107
NsS'jvc/RM-SMXJ950R'
p108
NsS'jvc/LP20303-009'
p109
NsS'jvc/RM-SES700RU'
p110
NsS'jvc/RM-RXQC7BKE'
p111
NsS'jvc/RM-S9'
p112
NsS'jvc/RM-RXU1'
p113
NsS'jvc/PQ10543'
p114
NsS'jvc/RM-RK31'
p115
NsS'jvc/RM-SES200U'
p116
NsS'jvc/LP20337-004'
p117
NsS'jvc/RM-SES60U'
p118
NsS'jvc/RM-C860'
p119
NsS'jvc/RM-SFSSD7R'
p120
NsS'jvc/LP20978-008'
p121
NsS'jvc/RM-RX250'
p122
NsS'jvc/RM-SR509U'
p123
NsS'jvc/RM-C1251G'
p124
NsS'jvc/JVC_4700'
p125
NsS'jvc/RM-SED3SU'
p126
NsS'jvc/RM-RD1100'
p127
NsS'jvc/RM-V717U'
p128
NsS'jvc/RM-C462'
p129
NsS'jvc/RM-V730U'
p130
NsS'jvc/RM-C475W'
p131
NsS'jvc/RM-C422'
p132
NsS'jvc/RM-SES3OU'
p133
NsS'jvc/RM-SHXD77J'
p134
NsS'jvc/LP20337-013'
p135
NsS'jvc/RM-RXQW35'
p136
NsS'jvc/RM-SX334U'
p137
NsS'jvc/6711R1P037A'
p138
NsS'jvc/RM-RX050'
p139
NsS'jvc/RM-RK60'
p140
NsS'jvc/RM-V718U'
p141
NsS'jvc/RM-SX440'
p142
NsS'jvc/RM-RXUT200R'
p143
NsS'jvc/RM-C241'
p144
NsS'jvc/RM-SEMD70RU'
p145
NsS'jvc/RM-C795'
p146
NssS'dantax'
p147
(dp148
S'dantax/RC_DVD910'
p149
NssS'visionetics'
p150
(dp151
S'visionetics/Cable_Box'
p152
NssS'fenner'
p153
(dp154
S'fenner/SAT'
p155
NssS'advanced_acoustic'
p156
(dp157
S'advanced_acoustic/MAP-305II_DAII'
p158
NssS'olympus'
p159
(dp160
S'olympus/RM-1'
p161
NsS'olympus/RM-2'
p162
NssS'atlanta_dth'
p163
(dp164
S'atlanta_dth/8009_DSR'
p165
NssS'topseed'
p166
(dp167
S'topseed/RM-VR1'
p168
NssS'sony'
p169
(dp170
S'sony/RMT-809'
p171
NsS'sony/RM-S343'
p172
NsS'sony/RM-DM9'
p173
NsS'sony/RMT-C205AD'
p174
NsS'sony/RM-DM7'
p175
NsS'sony/RM-S29E'
p176
NsS'sony/RM-SD25-3'
p177
NsS'sony/RM-J701'
p178
NsS'sony/RM-S6'
p179
NsS'sony/RM-S103'
p180
NsS'sony/RM-D5'
p181
NsS'sony/RMT-C767'
p182
NsS'sony/RM-D295'
p183
NsS'sony/RM-S33'
p184
NsS'sony/RM-D49M'
p185
NsS'sony/RM-PP411'
p186
NsS'sony/RMT-C565'
p187
NsS'sony/RMT-C350'
p188
NsS'sony/RMT-V108.irman'
p189
NsS'sony/RM-U306A'
p190
NsS'sony/RM-D490'
p191
NsS'sony/RMT-D114A'
p192
NsS'sony/RM-D29M'
p193
NsS'sony/RM-U25'
p194
NsS'sony/RM-893'
p195
NsS'sony/RMT-D173A'
p196
NsS'sony/RM-D791'
p197
NsS'sony/RMT-V406B'
p198
NsS'sony/RM-783'
p199
NsS'sony/RM-SV236'
p200
NsS'sony/RM-D797'
p201
NsS'sony/RM-D315'
p202
NsS'sony/V500_VPL-W400'
p203
NsS'sony/RM-827T'
p204
NsS'sony/RM-U305'
p205
NsS'sony/RM-U302'
p206
NsS'sony/RM-U303'
p207
NsS'sony/RMT-V166-TV'
p208
NsS'sony/RMT-DSC2'
p209
NsS'sony/RMT-D142P'
p210
NsS'sony/RM-S44'
p211
NsS'sony/RM-V11'
p212
NsS'sony/RMT-V189'
p213
NsS'sony/RM-687C'
p214
NsS'sony/RMT-C301'
p215
NsS'sony/RM-DX740'
p216
NsS'sony/RM-D450'
p217
NsS'sony/RM-D420'
p218
NsS'sony/RM-SC1'
p219
NsS'sony/RM-V111T'
p220
NsS'sony/RM-D270'
p221
NsS'sony/RM-Y103'
p222
NsS'sony/RM-V210'
p223
NsS'sony/RMT-V117'
p224
NsS'sony/RM-SR231'
p225
NsS'sony/SWK-8660'
p226
NsS'sony/RMT-CF1A'
p227
NsS'sony/RM-S100'
p228
NsS'sony/RMT-V154F'
p229
NsS'sony/RM-PJVW10'
p230
NsS'sony/RM-PJP1'
p231
NsS'sony/RMT-D116P'
p232
NsS'sony/RM-D27M'
p233
NsS'sony/RMT-B101A'
p234
NsS'sony/RMT-D153A'
p235
NsS'sony/RM-D17M'
p236
NsS'sony/RM-SE7AV'
p237
NsS'sony/RM-947'
p238
NsS'sony/RMT-V676B'
p239
NsS'sony/RM-D720'
p240
NsS'sony/RMT-D129A'
p241
NsS'sony/SCPH-10150'
p242
NsS'sony/RM-DX300'
p243
NsS'sony/RM-D1000'
p244
NsS'sony/RMT-V124'
p245
NsS'sony/CMT-CP100'
p246
NsS'sony/RM-D250'
p247
NsS'sony/RM-Y168'
p248
NsS'sony/RM-D520'
p249
NsS'sony/RM-606'
p250
NsS'sony/RM-SS800'
p251
NsS'sony/RMT-V270'
p252
NsS'sony/RM-AAU014'
p253
NsS'sony/RM-D597'
p254
NsS'sony/RM-S315'
p255
NsS'sony/RM-D820'
p256
NsS'sony/RM-S311'
p257
NsS'sony/RM-SV215D'
p258
NsS'sony/RMT-M22'
p259
NsS'sony/RM-D670A'
p260
NsS'sony/RM-870'
p261
NsS'sony/RM-SR210.irman'
p262
NsS'sony/RMT-708'
p263
NsS'sony/RM-Y116.irman'
p264
NsS'sony/RM-ED009'
p265
NsS'sony/RMT-D126E'
p266
NsS'sony/RM-D15M'
p267
NsS'sony/RMT-D126A'
p268
NsS'sony/RM-S150'
p269
NsS'sony/RM-Y118'
p270
NsS'sony/RMT-V402A'
p271
NsS'sony/RMT-V153B'
p272
NsS'sony/RM-694'
p273
NsS'sony/RM-S61'
p274
NsS'sony/RM-921'
p275
NsS'sony/SCPH-10150.irman'
p276
NsS'sony/RMT-DRS11'
p277
NsS'sony/RM-SR100'
p278
NsS'sony/RM-S375X'
p279
NsS'sony/RMT-B104P'
p280
NsS'sony/RM-D335'
p281
NsS'sony/RM-S737'
p282
NsS'sony/RM-D57A'
p283
NsS'sony/RM-ED006'
p284
NsS'sony/RMT-V256'
p285
NsS'sony/RM-U33AV'
p286
NsS'sony/RM-V310'
p287
NsS'sony/RMT-V266'
p288
NsS'sony/RM-VZ950T'
p289
NsS'sony/RMT-835'
p290
NsS'sony/RM-D921'
p291
NsS'sony/RM-D420.irman'
p292
NsS'sony/RM-V211T'
p293
NsS'sony/KV_32LS35E'
p294
NsS'sony/RM-470'
p295
NsS'sony/RM-U204'
p296
NsS'sony/RM-D1M'
p297
NsS'sony/RM-673'
p298
NsS'sony/RMT-V145A'
p299
NsS'sony/RMT-CS200A'
p300
NsS'sony/RMT-CS33AD'
p301
NsS'sony/RM-D2100'
p302
NsS'sony/CONRAD_CD000'
p303
NsS'sony/DVP-S505'
p304
NsS'sony/RMT-M12A'
p305
NsS'sony/RM-L310'
p306
NsS'sony/RM-SG20'
p307
NsS'sony/RM-D7M'
p308
NsS'sony/RM-887'
p309
NsS'sony/RMT-C202'
p310
NsS'sony/RM-Y800'
p311
NsS'sony/RM-883'
p312
NsS'sony/RMT-V159'
p313
NsS'sony/RM-U541'
p314
NsS'sony/RM-D55A'
p315
NsS'sony/RMT-D115P'
p316
NsS'sony/RM-sep303'
p317
NsS'sony/RM-DX50'
p318
NsS'sony/RM-SSP55'
p319
NsS'sony/RM-YD010'
p320
NsS'sony/RM-D7M.2'
p321
NsS'sony/RM-P362'
p322
NsS'sony/839'
p323
NsS'sony/RM-873'
p324
NsS'sony/RM-D190'
p325
NsS'sony/RM-D10P'
p326
NsS'sony/RMT-V257B'
p327
NsS'sony/RM-U302.irman'
p328
NsS'sony/RMT-814'
p329
NsS'sony/RMT-D143E'
p330
NsS'sony/RM-S55'
p331
NsS'sony/RMT-812'
p332
NsS'sony/RMT-V231A'
p333
NsS'sony/RM-Y180'
p334
NsS'sony/RM-Y181'
p335
NsS'sony/RMT-CS33R.irman'
p336
NsS'sony/RM-D391'
p337
NsS'sony/RMT-506'
p338
NsS'sony/VaioRemote'
p339
NsS'sony/RMT-V202'
p340
NsS'sony/RM-S112'
p341
NsS'sony/STR-DE635'
p342
NsS'sony/RM-YD003'
p343
NsS'sony/RM-U265'
p344
NsS'sony/RM-U264'
p345
NsS'sony/STR-DE205'
p346
NsS'sony/RMT_CYN7AD'
p347
NsS'sony/RM-V202'
p348
NsS'sony/RM-D991'
p349
NsS'sony/RM-S22'
p350
NsS'sony/RM-AV3000'
p351
NsS'sony/RMT-V288'
p352
NsS'sony/RM-S29'
p353
NsS'sony/RMT-V155C'
p354
NsS'sony/RMT-V141K'
p355
NsS'sony/AMPIR'
p356
NsS'sony/RM-PP402'
p357
NsS'sony/RM-S325'
p358
NsS'sony/RM-D90'
p359
NsS'sony/RMT-V256A.irman'
p360
NsS'sony/RM-SR8'
p361
NsS'sony/RMT-V501A'
p362
NsS'sony/RM-S609'
p363
NsS'sony/RM-X95'
p364
NsS'sony/RM-D302'
p365
NsS'sony/V164G-TV'
p366
NsS'sony/RMT-713'
p367
NsS'sony/RM-SRB5'
p368
NsS'sony/RM-816'
p369
NsS'sony/RMT-V259K'
p370
NsS'sony/RMT-V115A'
p371
NsS'sony/RM-V10T'
p372
NsS'sony/RMT-V207C'
p373
NsS'sony/RMT-D141P'
p374
NsS'sony/RMT-831'
p375
NsS'sony/RM-X30'
p376
NsS'sony/RMT-D155A'
p377
NsS'sony/RMT-D100A'
p378
NsS'sony/RM-SE1AV'
p379
NsS'sony/RM-D55'
p380
NsS'sony/RM-ED035'
p381
NsS'sony/TV'
p382
NsS'sony/RMT-V107'
p383
NsS'sony/RMT-V181D'
p384
NsS'sony/RMT-V102'
p385
NsS'sony/RM-S705'
p386
NsS'sony/RM-AV2100T'
p387
NsS'sony/RM-SD80.irman'
p388
NsS'sony/RM-D350A'
p389
NsS'sony/SCPH-10420'
p390
NsS'sony/RM-DX220'
p391
NsS'sony/RMT-D156P'
p392
NsS'sony/RMT-V767'
p393
NsS'sony/RM-D325'
p394
NsS'sony/RM-X42'
p395
NsS'sony/RM-X40'
p396
NsS'sony/RM-X47'
p397
NsS'sony/RM-D320'
p398
NsS'sony/RMT-V186D'
p399
NsS'sony/RM-836'
p400
NsS'sony/RM-833'
p401
NsS'sony/RM-830'
p402
NsS'sony/RM-831'
p403
NsS'sony/RM-935'
p404
NsS'sony/RM-934'
p405
NsS'sony/RM-932'
p406
NsS'sony/RM-839'
p407
NsS'sony/RMT-D157P'
p408
NsS'sony/RM-SD70'
p409
NsS'sony/RMT-V406'
p410
NsS'sony/RM-D706'
p411
NsS'sony/RM-YD017.tira'
p412
NsS'sony/RM-ED019'
p413
NsS'sony/RM-ED011'
p414
NsS'sony/RM-689'
p415
NsS'sony/RM-D690'
p416
NsS'sony/RM-Y173'
p417
NsS'sony/RMT-V161'
p418
NsS'sony/RMT-V202A'
p419
NsS'sony/RMT-V173C'
p420
NsS'sony/RMT-V223'
p421
NsS'sony/RMT-V245A'
p422
NsS'sony/RMT-V501E'
p423
NsS'sony/RM-861'
p424
NsS'sony/RM-860'
p425
NsS'sony/RM-862'
p426
NsS'sony/RMT-CZW770AD'
p427
NsS'sony/RM-DX200'
p428
NsS'sony/RM-D170'
p429
NsS'sony/RM-PP860'
p430
NsS'sony/SCPH-10130'
p431
NsS'sony/RM-S530'
p432
NsS'sony/RMT-CE95AD'
p433
NsS'sony/RM-V402'
p434
NsS'sony/RM-S160'
p435
NsS'sony/RM-Y139.irman'
p436
NsS'sony/RM-SG5'
p437
NsS'sony/RM-SG7'
p438
NsS'sony/RM-U305C.irman'
p439
NsS'sony/RM-SED2'
p440
NsS'sony/RMT-C380'
p441
NsS'sony/RMT-504'
p442
NsS'sony/RMT-502'
p443
NsS'sony/RM-S11'
p444
NsS'sony/RM-SD50'
p445
NsS'sony/RM-Y155B'
p446
NsS'sony/RM-W100'
p447
NsS'sony/RM-W101'
p448
NsS'sony/RMT-CS47AD'
p449
NsS'sony/RMT-136'
p450
NsS'sony/RMT-V181G'
p451
NsS'sony/RM-Y812'
p452
NsS'sony/DAT'
p453
NsS'sony/RM-S702'
p454
NsS'sony/RM-Y135'
p455
NsS'sony/RMT-V181A'
p456
NsS'sony/RMT-V181N'
p457
NsS'sony/RMT-C305AD'
p458
NsS'sony/TUNER'
p459
NsS'sony/RM-SM100EW'
p460
NsS'sony/RMT-V166-VTR'
p461
NsS'sony/RMT-V164A'
p462
NsS'sony/RM-V301'
p463
NsS'sony/RM-YD024'
p464
NsS'sony/RM-V302'
p465
NsS'sony/RMT-V159J'
p466
NsS'sony/RM-AV2000.irman'
p467
NssS'sitronics'
p468
(dp469
S'sitronics/RC-D010E'
p470
NssS'alpine'
p471
(dp472
S'alpine/RUE-4187'
p473
NsS'alpine/RUE-4185'
p474
NssS'gran_prix'
p475
(dp476
S'gran_prix/TV'
p477
NssS'trutech'
p478
(dp479
S'trutech/TV'
p480
NssS'panasat'
p481
(dp482
S'panasat/IRD_DSD_1110'
p483
NssS'slim_devices'
p484
(dp485
S'slim_devices/Squeezebox3'
p486
NssS'galaxis'
p487
(dp488
S'galaxis/UR-250D'
p489
NsS'galaxis/RC1'
p490
NsS'galaxis/RCMM'
p491
NsS'galaxis/RC5'
p492
NssS'upc'
p493
(dp494
S'upc/SAT'
p495
NssS'vistron'
p496
(dp497
S'vistron/LTM-3271E'
p498
NsS'vistron/DVD-5211'
p499
NssS'roku'
p500
(dp501
S'roku/Soundbridge'
p502
NsS'roku/Netflix_Player'
p503
NsS'roku/N1000-04'
p504
NssS'northq'
p505
(dp506
S'northq/6400'
p507
NssS'anitech'
p508
(dp509
S'anitech/TV_M3740'
p510
NsS'anitech/VCR'
p511
NssS'teac'
p512
(dp513
S'teac/RC-547'
p514
NsS'teac/RC-614'
p515
NsS'teac/PD-D900'
p516
NsS'teac/UR-417'
p517
NsS'teac/RC-548'
p518
NsS'teac/RC-558'
p519
NsS'teac/DMP'
p520
NsS'teac/RC-1091'
p521
NsS'teac/RC-909'
p522
NssS'zoltrix'
p523
(dp524
S'zoltrix/lircd.conf.zoltrix'
p525
NssS'uei'
p526
(dp527
S'uei/DVR-1055'
p528
NssS'cph03x'
p529
(dp530
S'cph03x/lircd.conf.cph03x'
p531
NssS'life-view'
p532
(dp533
S'life-view/lircd.conf.Flyvideo_3000'
p534
NsS'life-view/lircd.conf.flyvideo'
p535
NssS'uec'
p536
(dp537
S'uec/DVB_SAT'
p538
NssS'yakumo'
p539
(dp540
S'yakumo/DVD_Master_DX4'
p541
NssS'hitachi'
p542
(dp543
S'hitachi/VT-RM633E'
p544
NsS'hitachi/VM222'
p545
NsS'hitachi/CLE-947'
p546
NsS'hitachi/VT-RM621A'
p547
NsS'hitachi/VT-M410E'
p548
NsS'hitachi/VT-RM783E'
p549
NsS'hitachi/FX-7'
p550
NsS'hitachi/RB-77'
p551
NsS'hitachi/RM-466E'
p552
NsS'hitachi/CLE-941'
p553
NsS'hitachi/CP-X345'
p554
NsS'hitachi/CLU4341UG2'
p555
NsS'hitachi/898A'
p556
NsS'hitachi/VM-rmE55A'
p557
NsS'hitachi/VT-RM_728E'
p558
NsS'hitachi/RM-613a'
p559
NsS'hitachi/TV_VCR'
p560
NsS'hitachi/DV-RM335E'
p561
NsS'hitachi/VT-RM401E.irman'
p562
NssS'media-tech'
p563
(dp564
S'media-tech/RUMBA_5.1_MT343'
p565
NssS'manta'
p566
(dp567
S'manta/DVD-002'
p568
NsS'manta/DVD-007'
p569
NssS'panda'
p570
(dp571
S'panda/DVD-6838'
p572
NssS'vitek'
p573
(dp574
S'vitek/Vitek'
p575
NssS'2wire'
p576
(dp577
S'2wire/2wire'
p578
NssS'sun'
p579
(dp580
S'sun/RMC-D10'
p581
NssS'amytel'
p582
(dp583
S'amytel/ACI-200'
p584
NssS'nec'
p585
(dp586
S'nec/RC-6051'
p587
NsS'nec/RD-337E'
p588
NsS'nec/RC-1070E'
p589
NsS'nec/RD-343E'
p590
NsS'nec/RC-1067E'
p591
NsS'nec/RD-1077E'
p592
NsS'nec/RB-34P'
p593
NsS'nec/RB-DV22'
p594
NsS'nec/RC-1080E'
p595
NsS'nec/UR-3020'
p596
NsS'nec/RB-D1G'
p597
NsS'nec/RB-D3A'
p598
NsS'nec/RU-1220S'
p599
NsS'nec/TRB-31'
p600
NsS'nec/TRB-103'
p601
NsS'nec/RC-1083E'
p602
NsS'nec/RD-335E'
p603
NsS'nec/RD-1083E'
p604
NsS'nec/RC-1077E'
p605
NsS'nec/RC-334E'
p606
NsS'nec/TRB-60'
p607
NsS'nec/RD-409E'
p608
NsS'nec/TRB-968A'
p609
NsS'nec/RC-6321'
p610
NsS'nec/RC-1065E'
p611
NsS'nec/RD-427E'
p612
NsS'nec/RD-348E'
p613
NsS'nec/RB-73A'
p614
NsS'nec/RD-1078E'
p615
NsS'nec/RC-6010'
p616
NssS'satelco'
p617
(dp618
S'satelco/EasyWatch'
p619
NssS'abs'
p620
(dp621
S'abs/8776'
p622
NssS'kanam_accent'
p623
(dp624
S'kanam_accent/lircd.conf.IR-100'
p625
NsS'kanam_accent/lircd.conf.kanam_accent'
p626
NssS'3m'
p627
(dp628
S'3m/MP8640'
p629
NssS'optex'
p630
(dp631
S'optex/ORT_8790'
p632
NssS'admiral'
p633
(dp634
S'admiral/G0014AJ'
p635
NssS'kosmos'
p636
(dp637
S'kosmos/STR1050'
p638
NssS'euroconsumers'
p639
(dp640
S'euroconsumers/LG-5988'
p641
NssS'yamakawa'
p642
(dp643
S'yamakawa/DVD-285VGA'
p644
NssS'aten'
p645
(dp646
S'aten/VS-431'
p647
NssS'strong'
p648
(dp649
S'strong/ZapBox'
p650
NssS'system76'
p651
(dp652
S'system76/Bonobo'
p653
NssS'eltasat'
p654
(dp655
S'eltasat/SAT170'
p656
NssS'venturer'
p657
(dp658
S'venturer/STB7766G1'
p659
NsS'venturer/CD1832'
p660
NssS'aki'
p661
(dp662
S'aki/DVD-838W'
p663
NssS'mitochiba'
p664
(dp665
S'mitochiba/JX-9902'
p666
NsS'mitochiba/KF220100'
p667
NssS'lasonic'
p668
(dp669
S'lasonic/R-2000'
p670
NssS'rotel'
p671
(dp672
S'rotel/RR-925'
p673
NssS'yamada'
p674
(dp675
S'yamada/DVX-6xxx'
p676
NsS'yamada/PRM-400'
p677
NssS'apple'
p678
(dp679
S'apple/A1156'
p680
NsS'apple/lircd.conf.macmini'
p681
NsS'apple/CD'
p682
NsS'apple/APPLE.irman'
p683
NsS'apple/Mac'
p684
NsS'apple/A1294'
p685
NssS'cttc'
p686
(dp687
S'cttc/CLA_Tronic'
p688
NssS'sgi'
p689
(dp690
S'sgi/4-042-281'
p691
NssS'revoy'
p692
(dp693
S'revoy/Revoy_2200'
p694
NssS'awlibusb'
p695
(dp696
S'awlibusb/lircd.conf.awlibusb'
p697
NssS'philco'
p698
(dp699
S'philco/PCR-111'
p700
NssS'orava'
p701
(dp702
S'orava/ovara/RC-5500'
p703
NsS'orava/RC_5219'
p704
NssS'illusion'
p705
(dp706
S'illusion/M3'
p707
NssS'fte_maximal'
p708
(dp709
S'fte_maximal/ESR1500'
p710
NssS'konig'
p711
(dp712
S'konig/IR_9490'
p713
NsS'konig/IR_9836'
p714
NssS'comcast'
p715
(dp716
S'comcast/RNG-150'
p717
NsS'comcast/Custom-3-Device'
p718
NsS'comcast/3067BC2-R'
p719
NssS'msi'
p720
(dp721
S'msi/Media_Center'
p722
NsS'msi/Mega_PC'
p723
NsS'msi/MegaPC_180'
p724
NsS'msi/TV@nywhere'
p725
NssS'minolta'
p726
(dp727
S'minolta/RC3'
p728
NssS'adstech'
p729
(dp730
S'adstech/lircd.conf.usbx-707'
p731
NssS'aopen'
p732
(dp733
S'aopen/RC-R470'
p734
NssS'miro'
p735
(dp736
S'miro/MIRO_PCTV_pro'
p737
NssS'viewsat'
p738
(dp739
S'viewsat/SAT'
p740
NsS'viewsat/VS2000_Extreme'
p741
NssS'nebula_electronics'
p742
(dp743
S'nebula_electronics/DigiTV'
p744
NssS'macro_image_technology'
p745
(dp746
S'macro_image_technology/MyHD'
p747
NssS'atlas'
p748
(dp749
S'atlas/ABS-1Q76'
p750
NssS'difrnce'
p751
(dp752
S'difrnce/DVD5010S'
p753
NssS'goldstar'
p754
(dp755
S'goldstar/TV'
p756
NsS'goldstar/VCR'
p757
NsS'goldstar/RN800AW'
p758
NsS'goldstar/TV_VCR'
p759
NsS'goldstar/6710S-6000A'
p760
NsS'goldstar/QUISY_500'
p761
NsS'goldstar/VCR2'
p762
NsS'goldstar/243-592c'
p763
NsS'goldstar/GSE-Q204P'
p764
NsS'goldstar/105-210A'
p765
NssS'mitsubishi'
p766
(dp767
S'mitsubishi/RM_M25-43306'
p768
NsS'mitsubishi/RM_M25-43303'
p769
NsS'mitsubishi/HS-349'
p770
NsS'mitsubishi/CD-2015C'
p771
NsS'mitsubishi/CS-2047R'
p772
NsS'mitsubishi/RM_75501'
p773
NsS'mitsubishi/HS640V'
p774
NsS'mitsubishi/CT21AM2(A)'
p775
NsS'mitsubishi/RM561V'
p776
NsS'mitsubishi/DIVA29'
p777
NsS'mitsubishi/HD1000'
p778
NssS'ibm'
p779
(dp780
S'ibm/HD23A'
p781
NssS'multi_canal'
p782
(dp783
S'multi_canal/DCC2000'
p784
NssS'freedomland'
p785
(dp786
S'freedomland/SWP-2438WJ1F'
p787
NssS'eclipse'
p788
(dp789
S'eclipse/CD101'
p790
NssS'dynaudio'
p791
(dp792
S'dynaudio/Sub_500'
p793
NssS'cat'
p794
(dp795
S'cat/KF-9816'
p796
NsS'cat/DVD-1122'
p797
NsS'cat/CS-907'
p798
NssS'emerson'
p799
(dp800
S'emerson/TV'
p801
NsS'emerson/NB050'
p802
NsS'emerson/076m056100'
p803
NsS'emerson/CD'
p804
NssS'pc_expert_tech'
p805
(dp806
S'pc_expert_tech/MKB975'
p807
NssS'saba'
p808
(dp809
S'saba/TC545'
p810
NsS'saba/RC6X03FE'
p811
NsS'saba/m100'
p812
NsS'saba/TC460'
p813
NsS'saba/TC3003'
p814
NsS'saba/TC521'
p815
NssS'l+s'
p816
(dp817
S'l+s/LS_20101'
p818
NsS'l+s/LS_30775'
p819
NssS'benq'
p820
(dp821
S'benq/DV3080'
p822
NsS'benq/MP620'
p823
NssS'time_warner_cable'
p824
(dp825
S'time_warner_cable/RT-59C'
p826
NsS'time_warner_cable/UR4-P360'
p827
NssS'dual'
p828
(dp829
S'dual/RC1150'
p830
NsS'dual/RC_4890'
p831
NsS'dual/RC500'
p832
NssS'gamefactory'
p833
(dp834
S'gamefactory/PS2DVD'
p835
NssS'alba'
p836
(dp837
S'alba/DVD108'
p838
NssS'hip_interactive'
p839
(dp840
S'hip_interactive/GE1002'
p841
NssS'ione'
p842
(dp843
S'ione/HTPC'
p844
NssS'elenberg'
p845
(dp846
S'elenberg/RC-404E'
p847
NssS'total_control'
p848
(dp849
S'total_control/11-1208R00'
p850
NssS'orion'
p851
(dp852
S'orion/RC-BM'
p853
NsS'orion/RC-CB'
p854
NsS'orion/RC-57'
p855
NsS'orion/TV-713'
p856
NsS'orion/RC-08'
p857
NssS'chronos'
p858
(dp859
S'chronos/lircd.conf.chronos'
p860
NssS'sharp'
p861
(dp862
S'sharp/G1023BMSA'
p863
NsS'sharp/G0797CESA'
p864
NsS'sharp/G1051BMSA'
p865
NsS'sharp/G1014BMSA'
p866
NsS'sharp/G0938CESA'
p867
NsS'sharp/G0412GE'
p868
NsS'sharp/G1059SA'
p869
NsS'sharp/G0247AJ'
p870
NsS'sharp/RRMCGA030WJSA'
p871
NsS'sharp/GA447SA'
p872
NsS'sharp/G0206AJ'
p873
NsS'sharp/G1044BMSA'
p874
NsS'sharp/GA006SA'
p875
NsS'sharp/VC-1594B'
p876
NsS'sharp/G1208AJ'
p877
NsS'sharp/LC-20V1RU'
p878
NsS'sharp/GA035SB'
p879
NsS'sharp/RRMCG0041SJSA'
p880
NsS'sharp/G0715UM'
p881
NsS'sharp/RRMCG0235AJSB'
p882
NsS'sharp/GJ210'
p883
NsS'sharp/G0927AJ'
p884
NsS'sharp/RRMCG0012SJSB'
p885
NsS'sharp/RRMCG0199GESA'
p886
NsS'sharp/G1046BMSA'
p887
NsS'sharp/G1324SA'
p888
NsS'sharp/G096GE'
p889
NsS'sharp/G0742GE'
p890
NsS'sharp/RRMCG0101AJSA'
p891
NsS'sharp/G0009AJ'
p892
NsS'sharp/G0379GE'
p893
NsS'sharp/G0641CESA'
p894
NsS'sharp/GA538WJSA'
p895
NsS'sharp/RRMCG0356AWSA'
p896
NsS'sharp/RRMCG0229AWSA'
p897
NsS'sharp/GA339WJSA'
p898
NsS'sharp/CV-2131CK1'
p899
NsS'sharp/RRMCG0186AFSA'
p900
NsS'sharp/R-CONT1616A'
p901
NsS'sharp/G1084PESA'
p902
NsS'sharp/1781'
p903
NsS'sharp/G0048TA'
p904
NsS'sharp/G1071SA'
p905
NsS'sharp/G0006AJ'
p906
NssS'brondell'
p907
(dp908
S'brondell/swash_300.lircd.conf'
p909
NssS'animax'
p910
(dp911
S'animax/lircd.conf.animax'
p912
NssS'united'
p913
(dp914
S'united/DVD4057M'
p915
NssS'palmbutler'
p916
(dp917
S'palmbutler/RC1154101_00'
p918
NssS'revo'
p919
(dp920
S'revo/Blik'
p921
NssS'grundig'
p922
(dp923
S'grundig/TP_750C'
p924
NsS'grundig/TP_760'
p925
NsS'grundig/RC1CD'
p926
NsS'grundig/TP_820_SAT'
p927
NsS'grundig/TP_661_TOP'
p928
NsS'grundig/ASIS'
p929
NsS'grundig/System_Series'
p930
NsS'grundig/TP_800_HOTEL'
p931
NsS'grundig/TP_623'
p932
NsS'grundig/RC24-03'
p933
NsS'grundig/RP_100'
p934
NsS'grundig/TelePilot_100C'
p935
NsS'grundig/RP25'
p936
NsS'grundig/FineArts_AMP_V1'
p937
NsS'grundig/RC-TP3'
p938
NsS'grundig/TVP_763'
p939
NsS'grundig/CDM_700'
p940
NsS'grundig/RP_35'
p941
NsS'grundig/RP700'
p942
NsS'grundig/FineARTS'
p943
NsS'grundig/Personal_Remote_10'
p944
NsS'grundig/2500S'
p945
NsS'grundig/RC300'
p946
NsS'grundig/TP660'
p947
NsS'grundig/TP_715'
p948
NsS'grundig/TP_711'
p949
NsS'grundig/TelePilot_84D'
p950
NsS'grundig/TP_720'
p951
NsS'grundig/TP_160C'
p952
NsS'grundig/RP75_LCD'
p953
NsS'grundig/TP_750C-2'
p954
NsS'grundig/TP_715_SAT'
p955
NsS'grundig/M38-C'
p956
NsS'grundig/RC8400CD'
p957
NsS'grundig/TP_621'
p958
NsS'grundig/rc8300ac'
p959
NssS'hot'
p960
(dp961
S'hot/SET_TOP_BOX'
p962
NssS'one_for_all'
p963
(dp964
S'one_for_all/URC-7830'
p965
NsS'one_for_all/URC-7710'
p966
NsS'one_for_all/URC-5550'
p967
NsS'one_for_all/URC7040_Phillips_0081_VCR'
p968
NsS'one_for_all/URC-2510'
p969
NsS'one_for_all/URC-6131nwB00'
p970
NsS'one_for_all/URC-8200B00'
p971
NsS'one_for_all/URC-4220'
p972
NsS'one_for_all/URC-8060-Sat-0200'
p973
NsS'one_for_all/URC-5065'
p974
NsS'one_for_all/URC-7510-2'
p975
NsS'one_for_all/URC-6012w'
p976
NsS'one_for_all/URC-8204'
p977
NsS'one_for_all/URC-8040'
p978
NsS'one_for_all/URC-8203'
p979
NsS'one_for_all/URC-7730'
p980
NsS'one_for_all/URC-7560'
p981
NsS'one_for_all/URC-7562'
p982
NsS'one_for_all/URC-7550'
p983
NsS'one_for_all/ZAPPER'
p984
NsS'one_for_all/URC-7555'
p985
NsS'one_for_all/URC-7020'
p986
NsS'one_for_all/URC-3440'
p987
NsS'one_for_all/URC-3021B00'
p988
NsS'one_for_all/URC-2560'
p989
NsS'one_for_all/URC-8910'
p990
NsS'one_for_all/URC-7030'
p991
NsS'one_for_all/URC-7020_0083'
p992
NsS'one_for_all/URC-10820'
p993
NsS'one_for_all/URC-6012'
p994
NsS'one_for_all/URC_7720'
p995
NsS'one_for_all/URC-7562b'
p996
NsS'one_for_all/URC-7240'
p997
NsS'one_for_all/URC-7530'
p998
NsS'one_for_all/URC-7740'
p999
NsS'one_for_all/URC-7510'
p1000
NsS'one_for_all/URC-7562a'
p1001
NssS'lifesat'
p1002
(dp1003
S'lifesat/T_28'
p1004
NssS'tascam'
p1005
(dp1006
S'tascam/RC-401'
p1007
NsS'tascam/RC-31'
p1008
NssS'topfield'
p1009
(dp1010
S'topfield/TF4000Fi'
p1011
NsS'topfield/TF4000PVR'
p1012
NsS'topfield/PVR_5000'
p1013
NssS'mas'
p1014
(dp1015
S'mas/HSD-303'
p1016
NsS'mas/RC-0135'
p1017
NsS'mas/HSD-400'
p1018
NsS'mas/HSD400'
p1019
NssS'aoc'
p1020
(dp1021
S'aoc/M19W531'
p1022
NssS'vivanco'
p1023
(dp1024
S'vivanco/UR2'
p1025
NsS'vivanco/Viv.Control_3'
p1026
NsS'vivanco/UR_89'
p1027
NsS'vivanco/Viv.Control_8'
p1028
NssS'dell'
p1029
(dp1030
S'dell/MR425'
p1031
NssS'now_broadband_tv'
p1032
(dp1033
S'now_broadband_tv/SETTOP-BOX'
p1034
NsS'now_broadband_tv/DECODER'
p1035
NssS'sven'
p1036
(dp1037
S'sven/HT-475'
p1038
NsS'sven/IHOO_MT_5.1R'
p1039
NssS'centrum'
p1040
(dp1041
S'centrum/Gemini_340'
p1042
NsS'centrum/DVD'
p1043
NssS'xoro'
p1044
(dp1045
S'xoro/DVB_210_T'
p1046
NssS'lifetec'
p1047
(dp1048
S'lifetec/RC2000'
p1049
NsS'lifetec/Mini-Hifi-Station'
p1050
NsS'lifetec/LT9096'
p1051
NsS'lifetec/LT4033'
p1052
NssS'schneider'
p1053
(dp1054
S'schneider/FESTIVAL2000'
p1055
NsS'schneider/SVC568RC'
p1056
NsS'schneider/RC-193'
p1057
NsS'schneider/RC-116'
p1058
NsS'schneider/RC202'
p1059
NsS'schneider/RC-114'
p1060
NsS'schneider/FB2000'
p1061
NsS'schneider/Music-Center'
p1062
NsS'schneider/RC206'
p1063
NsS'schneider/RC902'
p1064
NsS'schneider/RC901'
p1065
NssS'gigabyte'
p1066
(dp1067
S'gigabyte/TV'
p1068
NssS'st'
p1069
(dp1070
S'st/HMP_7109'
p1071
NsS'st/DTTRC-4'
p1072
NssS'geniatech'
p1073
(dp1074
S'geniatech/Supera_Color'
p1075
NssS'nvidia'
p1076
(dp1077
S'nvidia/Personal_Cinema'
p1078
NssS'hello_kitty'
p1079
(dp1080
S'hello_kitty/KT2337'
p1081
NssS'e-tech'
p1082
(dp1083
S'e-tech/TV_CARD'
p1084
NssS'starhub'
p1085
(dp1086
S'starhub/ABQ-1H57-SCV'
p1087
NssS'i24'
p1088
(dp1089
S'i24/I24'
p1090
NssS'thomson'
p1091
(dp1092
S'thomson/RCT3004'
p1093
NsS'thomson/RCT2100'
p1094
NsS'thomson/RCT4130S'
p1095
NsS'thomson/ROC230'
p1096
NsS'thomson/DCI104ICS'
p1097
NsS'thomson/RCT_311_SE1G'
p1098
NsS'thomson/ROC_1404'
p1099
NsS'thomson/ROC85'
p1100
NsS'thomson/RC8003N'
p1101
NsS'thomson/RCT102'
p1102
NsS'thomson/ROC-3205'
p1103
NsS'thomson/TM9258'
p1104
NsS'thomson/ROC340'
p1105
NsS'thomson/RCS615TCLM1'
p1106
NsS'thomson/ROC740'
p1107
NsS'thomson/ROC3205'
p1108
NsS'thomson/RCT100'
p1109
NsS'thomson/RCT_311_SC1G'
p1110
NsS'thomson/RCT443_MN1'
p1111
NsS'thomson/TC99'
p1112
NsS'thomson/RC4208x'
p1113
NsS'thomson/RCT4131'
p1114
NsS'thomson/ROC45'
p1115
NsS'thomson/RC8005M'
p1116
NsS'thomson/ROC40'
p1117
NsS'thomson/KCT5000'
p1118
NsS'thomson/RC111TA1G'
p1119
NsS'thomson/RCT311DA2'
p1120
NsS'thomson/RCT110D_A1'
p1121
NsS'thomson/mb_100'
p1122
NsS'thomson/RC8002N'
p1123
NssS'directv'
p1124
(dp1125
S'directv/HD20-100'
p1126
NsS'directv/G051204'
p1127
NsS'directv/H23'
p1128
NsS'directv/RC32'
p1129
NsS'directv/RC24'
p1130
NsS'directv/RC64'
p1131
NsS'directv/RC16.irman'
p1132
NsS'directv/RC16'
p1133
NssS'scott'
p1134
(dp1135
S'scott/DVD-838'
p1136
NsS'scott/DVD-837'
p1137
NssS'itt'
p1138
(dp1139
S'itt/RC40.a'
p1140
NsS'itt/VR-3760'
p1141
NsS'itt/RC51'
p1142
NsS'itt/RC40'
p1143
NssS'hauppauge'
p1144
(dp1145
S'hauppauge/lircd.conf.hauppauge-stb'
p1146
NsS'hauppauge/MVP'
p1147
NsS'hauppauge/lircd.conf.hauppauge.irman'
p1148
NsS'hauppauge/WinTV-HVR_900'
p1149
NsS'hauppauge/DSR-0112'
p1150
NsS'hauppauge/DSR-0095'
p1151
NsS'hauppauge/lircd.conf.hauppauge'
p1152
NsS'hauppauge/SupportPlus7'
p1153
NsS'hauppauge/R808-HPG'
p1154
NssS'zyxel'
p1155
(dp1156
S'zyxel/DMA-1000'
p1157
NssS'home_cable'
p1158
(dp1159
S'home_cable/HCC9300'
p1160
NssS'goodmans'
p1161
(dp1162
S'goodmans/GDB_3'
p1163
NsS'goodmans/RC-BM'
p1164
NsS'goodmans/MD-305'
p1165
NsS'goodmans/GDVD124'
p1166
NssS'apex'
p1167
(dp1168
S'apex/K12B-C2'
p1169
NsS'apex/DT250'
p1170
NsS'apex/RM-2600'
p1171
NsS'apex/K12K-C5'
p1172
NsS'apex/DV-R200'
p1173
NsS'apex/RM-1200'
p1174
NsS'apex/AD-600A'
p1175
NsS'apex/DV-R383'
p1176
NssS'dream_multimedia'
p1177
(dp1178
S'dream_multimedia/URC-39930RJ0-03'
p1179
NsS'dream_multimedia/DM_7000.irman'
p1180
S'dream_multimedia/DM_7000.jpg'
p1181
sS'dream_multimedia/URC-39730-B00'
p1182
NssS'denver'
p1183
(dp1184
S'denver/DVD-228'
p1185
NssS'kenwood'
p1186
(dp1187
S'kenwood/RC-R0517'
p1188
NsS'kenwood/RC-56'
p1189
NsS'kenwood/RC-S0504'
p1190
NsS'kenwood/RC-P2030'
p1191
NsS'kenwood/RC-V8500L'
p1192
NsS'kenwood/RC-C2'
p1193
NsS'kenwood/RC-E5'
p1194
NsS'kenwood/AVREC'
p1195
NsS'kenwood/RC-P600'
p1196
NsS'kenwood/RC-G3'
p1197
NsS'kenwood/RC-601.irman'
p1198
NsS'kenwood/RC-LVD930R'
p1199
NsS'kenwood/RC-160'
p1200
NsS'kenwood/RC-D0705'
p1201
NsS'kenwood/RC-H7R'
p1202
NsS'kenwood/RC-RO711'
p1203
NsS'kenwood/RC-P0715'
p1204
NsS'kenwood/RC-M0701'
p1205
NsS'kenwood/RC-701R'
p1206
NsS'kenwood/RC-R0825'
p1207
NsS'kenwood/RC-SA70'
p1208
NsS'kenwood/RC-P0700'
p1209
NsS'kenwood/RC-P0702'
p1210
NsS'kenwood/RC-R0900'
p1211
NsS'kenwood/RC-R0721'
p1212
NsS'kenwood/RC-P800'
p1213
NsS'kenwood/RC-1001'
p1214
NsS'kenwood/RC-47'
p1215
NsS'kenwood/RC-R0503'
p1216
NsS'kenwood/RC-R0502'
p1217
NsS'kenwood/RC-R0505'
p1218
NsS'kenwood/RC_R0307'
p1219
NsS'kenwood/RC-R0623'
p1220
NsS'kenwood/RC-R0602'
p1221
NsS'kenwood/RC-M0301'
p1222
NsS'kenwood/RC-R0708'
p1223
NsS'kenwood/RC-F0100'
p1224
NsS'kenwood/RC-S0900'
p1225
NsS'kenwood/RC-206'
p1226
NsS'kenwood/RC-F2'
p1227
NsS'kenwood/RC-553e'
p1228
NsS'kenwood/RC-A0400'
p1229
NsS'kenwood/RC-R0614'
p1230
NsS'kenwood/RC-P6630'
p1231
NsS'kenwood/RC-R0813'
p1232
NsS'kenwood/RC-790'
p1233
NsS'kenwood/RC-P030'
p1234
NsS'kenwood/RC-R0311E'
p1235
NsS'kenwood/RC-H2R'
p1236
NsS'kenwood/RC-P87'
p1237
NsS'kenwood/RC-6030.irman'
p1238
NsS'kenwood/RC-P070'
p1239
NsS'kenwood/RC-P0400'
p1240
NssS'rubin'
p1241
(dp1242
S'rubin/54M03'
p1243
NssS'meridian'
p1244
(dp1245
S'meridian/MSR'
p1246
NssS'caraca'
p1247
(dp1248
S'caraca/lircd.conf.caraca'
p1249
NssS'jerrold'
p1250
(dp1251
S'jerrold/RT-J50'
p1252
NsS'jerrold/MRC_550'
p1253
NsS'jerrold/RC-OSD'
p1254
NsS'jerrold/RC_55-OSD'
p1255
NsS'jerrold/CFT2000'
p1256
NsS'jerrold/MRC_500'
p1257
NssS'nokia'
p1258
(dp1259
S'nokia/DBOX'
p1260
NsS'nokia/MM9600'
p1261
NsS'nokia/MM9780S'
p1262
NsS'nokia/MM9850T'
p1263
NsS'nokia/RCN_624'
p1264
NsS'nokia/DBOX2'
p1265
NsS'nokia/MM9802S'
p1266
NsS'nokia/VC_620'
p1267
NsS'nokia/RCN610'
p1268
NsS'nokia/SCN600'
p1269
NsS'nokia/VCN620'
p1270
NsS'nokia/VCR_3018_CE'
p1271
NssS'toshiba'
p1272
(dp1273
S'toshiba/RM-614Q'
p1274
NsS'toshiba/VC-642T'
p1275
NsS'toshiba/RM-A210'
p1276
NsS'toshiba/G83C0008A110'
p1277
NsS'toshiba/CT-90298'
p1278
NsS'toshiba/DC-SBH2'
p1279
NsS'toshiba/TDP-S2'
p1280
NsS'toshiba/VC-685'
p1281
NsS'toshiba/SE-R0049'
p1282
NsS'toshiba/SE-R0047'
p1283
NsS'toshiba/CT-9758'
p1284
NsS'toshiba/CT-9873'
p1285
NsS'toshiba/CT-865'
p1286
NsS'toshiba/VC-65T'
p1287
NsS'toshiba/CT-9952'
p1288
NsS'toshiba/VC-65'
p1289
NsS'toshiba/SE-R0031'
p1290
NsS'toshiba/VT-11'
p1291
NsS'toshiba/CT-847'
p1292
NsS'toshiba/SE-R0058'
p1293
NsS'toshiba/CT-90275'
p1294
NsS'toshiba/VT-12'
p1295
NsS'toshiba/CT-90047'
p1296
NsS'toshiba/VT-204G'
p1297
NsS'toshiba/VC-752'
p1298
NsS'toshiba/CT-90003'
p1299
NsS'toshiba/CT-90101'
p1300
NsS'toshiba/CT-835S'
p1301
NsS'toshiba/CT-9784'
p1302
NsS'toshiba/TSR-101R'
p1303
NsS'toshiba/CT-9347'
p1304
NsS'toshiba/CT-9573'
p1305
NsS'toshiba/VC-222T'
p1306
NsS'toshiba/VC-90B'
p1307
NsS'toshiba/VT-75F'
p1308
NsS'toshiba/VC-685.irman'
p1309
NsS'toshiba/SE-R0090'
p1310
NsS'toshiba/CT-90287'
p1311
NsS'toshiba/CT-9922'
p1312
NsS'toshiba/CT-9945'
p1313
NsS'toshiba/SE-R0313'
p1314
NsS'toshiba/SE-R0127'
p1315
NsS'toshiba/CT-9954'
p1316
NsS'toshiba/CT-826'
p1317
NsS'toshiba/CT-90205'
p1318
NsS'toshiba/CT-90159'
p1319
NsS'toshiba/CT-832'
p1320
NsS'toshiba/RMV-329.irman'
p1321
NsS'toshiba/CT-816'
p1322
NsS'toshiba/VCR-2230'
p1323
NsS'toshiba/CT-9881'
p1324
NsS'toshiba/CT-90038'
p1325
NsS'toshiba/VT-209W'
p1326
NsS'toshiba/CT-859'
p1327
NssS'casio'
p1328
(dp1329
S'casio/CMD-40'
p1330
NssS'ferguson'
p1331
(dp1332
S'ferguson/RC8X02NX'
p1333
NssS'commodore'
p1334
(dp1335
S'commodore/CDTV'
p1336
NssS'technosonic'
p1337
(dp1338
S'technosonic/DVD-204'
p1339
NssS'provision'
p1340
(dp1341
S'provision/PRDVD2166'
p1342
NsS'provision/PR-DVD2.0'
p1343
NssS'sanyo'
p1344
(dp1345
S'sanyo/B28001'
p1346
NsS'sanyo/A05800'
p1347
NsS'sanyo/CXKT'
p1348
NsS'sanyo/B01004'
p1349
NsS'sanyo/B01007'
p1350
NsS'sanyo/VHR-766G'
p1351
NsS'sanyo/IR-5211'
p1352
NsS'sanyo/TV2'
p1353
NsS'sanyo/US-038-S'
p1354
NsS'sanyo/B13509'
p1355
NsS'sanyo/B12628'
p1356
NsS'sanyo/B13540'
p1357
NsS'sanyo/B13537'
p1358
NsS'sanyo/VCR-9270'
p1359
NsS'sanyo/RB-SL22'
p1360
NsS'sanyo/CTP_6633'
p1361
NsS'sanyo/RMT-U100'
p1362
NsS'sanyo/RC700'
p1363
NsS'sanyo/JXMTA'
p1364
NsS'sanyo/RC-105C'
p1365
NsS'sanyo/TV'
p1366
NsS'sanyo/RB-DA300'
p1367
NsS'sanyo/B20501'
p1368
NsS'sanyo/CTP-6791P'
p1369
NsS'sanyo/N9377'
p1370
NsS'sanyo/JXZB'
p1371
NssS'bestbuy'
p1372
(dp1373
S'bestbuy/lircd.conf.bestbuy2'
p1374
NsS'bestbuy/lircd.conf.bestbuy'
p1375
NssS'ranex'
p1376
(dp1377
S'ranex/RGB_LED_LAMP_6000.191'
p1378
NssS'peekton'
p1379
(dp1380
S'peekton/IR6005'
p1381
NssS'dk_digital'
p1382
(dp1383
S'dk_digital/DVD-228'
p1384
NsS'dk_digital/DVD-585'
p1385
NssS'x10'
p1386
(dp1387
S'x10/lircd.conf.atilibusb'
p1388
NsS'x10/lircd.conf.atiusb'
p1389
NsS'x10/lircd.conf.mouseremote'
p1390
NsS'x10/lircd.conf.mp3anywhere'
p1391
NssS'terratec'
p1392
(dp1393
S'terratec/1400_DVB-T'
p1394
NsS'terratec/Cinergy_S2_PCI_HD'
p1395
NsS'terratec/M3PO'
p1396
NsS'terratec/Cinergy_DT_USB_XS_Diversity'
p1397
NsS'terratec/HomeArena_5.1'
p1398
NsS'terratec/Cinergy_T2'
p1399
NsS'terratec/Cinergy_TV'
p1400
NsS'terratec/Cinergy_C_PCI_HD'
p1401
NsS'terratec/Cinergy_1400-T'
p1402
NssS'norcent'
p1403
(dp1404
S'norcent/DP_311'
p1405
NssS'cyberhome'
p1406
(dp1407
S'cyberhome/CH-DVD-302'
p1408
NsS'cyberhome/CH-DVD_504'
p1409
NsS'cyberhome/AD-L_528'
p1410
NsS'cyberhome/CH-DVD_402'
p1411
NsS'cyberhome/ADL-528'
p1412
NsS'cyberhome/RMC-300Z'
p1413
NssS'ei'
p1414
(dp1415
S'ei/TV90'
p1416
NssS'metz'
p1417
(dp1418
S'metz/RA51'
p1419
NssS'rolsen'
p1420
(dp1421
S'rolsen/DK5A'
p1422
NsS'rolsen/K10B-C1'
p1423
NssS'viewmaxpro'
p1424
(dp1425
S'viewmaxpro/CABLE_BOX'
p1426
NssS'protek'
p1427
(dp1428
S'protek/SAT'
p1429
NssS'shannon'
p1430
(dp1431
S'shannon/SWK-8630'
p1432
NssS'multichoice'
p1433
(dp1434
S'multichoice/DSD910'
p1435
NssS'dart_europe'
p1436
(dp1437
S'dart_europe/lircd.conf.tv_radio_live'
p1438
NssS'sansui'
p1439
(dp1440
S'sansui/RS-S103'
p1441
NssS'auvisio'
p1442
(dp1443
S'auvisio/VRC-1100_Ro'
p1444
NssS'zehnder'
p1445
(dp1446
S'zehnder/BX-299'
p1447
NssS'dse'
p1448
(dp1449
S'dse/G1928'
p1450
NsS'dse/G7659'
p1451
NsS'dse/G1605'
p1452
NssS'aristona'
p1453
(dp1454
S'aristona/RC9067'
p1455
NsS'aristona/RC5525'
p1456
NsS'aristona/37TA1274_03'
p1457
NssS'foxtel'
p1458
(dp1459
S'foxtel/Digital_Satellite_STB'
p1460
NsS'foxtel/STU-120'
p1461
NsS'foxtel/Digital_Cable_STB'
p1462
NssS'kawa'
p1463
(dp1464
S'kawa/TV'
p1465
NssS'silvercrest'
p1466
(dp1467
S'silvercrest/URC-801'
p1468
NsS'silvercrest/RCH7S52'
p1469
NssS'acorp'
p1470
(dp1471
S'acorp/lircd.conf.acorp-878y'
p1472
NssS'hampton_bay'
p1473
(dp1474
S'hampton_bay/UC7078T'
p1475
NsS'hampton_bay/Window_AC'
p1476
NssS'hyundai'
p1477
(dp1478
S'hyundai/H-HT5111'
p1479
NsS'hyundai/H-DVD5038N'
p1480
NsS'hyundai/ImageQuest_L17T'
p1481
NssS'free'
p1482
(dp1483
S'free/Freebox_V5'
p1484
NsS'free/Freebox'
p1485
NssS'ntl'
p1486
(dp1487
S'ntl/DI4001N'
p1488
NssS'compro'
p1489
(dp1490
S'compro/DVB-T200'
p1491
NsS'compro/VideoMate-K300'
p1492
NssS'anysee'
p1493
(dp1494
S'anysee/DVB-T'
p1495
NssS'govideo'
p1496
(dp1497
S'govideo/D2730'
p1498
NssS'uniden'
p1499
(dp1500
S'uniden/UDS200r'
p1501
NssS'chaparral'
p1502
(dp1503
S'chaparral/11-5315-1'
p1504
NssS'supersqny'
p1505
(dp1506
S'supersqny/KM-168'
p1507
NssS'isp'
p1508
(dp1509
S'isp/4187'
p1510
NssS'clarion'
p1511
(dp1512
S'clarion/RCB-177'
p1513
NsS'clarion/RCB-130'
p1514
NssS'homecast'
p1515
(dp1516
S'homecast/DVB-S'
p1517
NsS'homecast/DVB-T'
p1518
NssS'att'
p1519
(dp1520
S'att/RC1534801_00.irman'
p1521
S'att/RC1534801_00.jpg'
p1522
sS'att/U-Verse'
p1523
NssS'recor'
p1524
(dp1525
S'recor/TV-4025'
p1526
NssS'knc_one'
p1527
(dp1528
S'knc_one/lircd.conf.knc_one'
p1529
NssS'furby'
p1530
(dp1531
S'furby/FURBY'
p1532
NssS'shinco'
p1533
(dp1534
S'shinco/RC-1730'
p1535
NssS'technotrend'
p1536
(dp1537
S'technotrend/REMOTE'
p1538
NsS'technotrend/S2400'
p1539
NsS'technotrend/TV-Card'
p1540
NsS'technotrend/DVB_S2-3200'
p1541
NsS'technotrend/Micro_S202'
p1542
NssS'atiusb'
p1543
(dp1544
S'atiusb/lircd.conf.atilibusb'
p1545
NsS'atiusb/lircd.conf.atiusb'
p1546
NssS'elmo'
p1547
(dp1548
S'elmo/PRC-100S'
p1549
NssS'contour'
p1550
(dp1551
S'contour/LXI'
p1552
NssS'mvision'
p1553
(dp1554
S'mvision/FCIS7000E+'
p1555
NssS'hirschmann'
p1556
(dp1557
S'hirschmann/RC_426'
p1558
NssS'kingman'
p1559
(dp1560
S'kingman/12in1_299'
p1561
NsS'kingman/10in1'
p1562
NsS'kingman/12in1_336'
p1563
NssS'digital_stream'
p1564
(dp1565
S'digital_stream/DTX9900'
p1566
NssS'interact'
p1567
(dp1568
S'interact/I-22121'
p1569
NssS'korting'
p1570
(dp1571
S'korting/0099N1'
p1572
NssS'avex'
p1573
(dp1574
S'avex/RC501'
p1575
NsS'avex/URC-R6'
p1576
NsS'avex/AV5609'
p1577
NssS'radio_shack'
p1578
(dp1579
S'radio_shack/5-in-1'
p1580
NsS'radio_shack/4-in-1_2142'
p1581
NsS'radio_shack/AB_Switcher'
p1582
NsS'radio_shack/5-in-1_2115'
p1583
NssS'technoline'
p1584
(dp1585
S'technoline/TL-1062'
p1586
NssS'telefunken'
p1587
(dp1588
S'telefunken/MB2100'
p1589
NsS'telefunken/TC141'
p1590
NsS'telefunken/FB1320'
p1591
NsS'telefunken/RC_5104N'
p1592
NsS'telefunken/IR3000'
p1593
NsS'telefunken/RC7106M'
p1594
NsS'telefunken/TVRC_1345_TOP'
p1595
NsS'telefunken/RC1323-VIDEO-B'
p1596
NsS'telefunken/VZ901.raw'
p1597
NsS'telefunken/RC1132'
p1598
NsS'telefunken/FB270.raw'
p1599
NsS'telefunken/TV'
p1600
NsS'telefunken/FB1550'
p1601
NsS'telefunken/RC_1127'
p1602
NssS'azbox'
p1603
(dp1604
S'azbox/S700'
p1605
NssS'marantz'
p1606
(dp1607
S'marantz/RMC-73'
p1608
NsS'marantz/RC4300CC'
p1609
NsS'marantz/RC1400-MD'
p1610
NsS'marantz/RC-6200-DV'
p1611
NsS'marantz/RC4000CD'
p1612
NsS'marantz/RC-1400'
p1613
NsS'marantz/RC-72CD'
p1614
NsS'marantz/RC-63CD'
p1615
NsS'marantz/RC-65CD'
p1616
NsS'marantz/RC8000PM'
p1617
NssS'akai'
p1618
(dp1619
S'akai/RC-V99A'
p1620
NsS'akai/RC-V23E'
p1621
NsS'akai/RC-C79'
p1622
NsS'akai/RC-61A'
p1623
NsS'akai/RC-V22A'
p1624
NsS'akai/RC-W201G'
p1625
NsS'akai/RC-V420E.irman'
p1626
NsS'akai/RC-S59'
p1627
NsS'akai/V425A'
p1628
NsS'akai/RC-Y121G'
p1629
NsS'akai/RC-AAV2100'
p1630
NsS'akai/TV'
p1631
NsS'akai/RC-S67'
p1632
NsS'akai/RC891'
p1633
NsS'akai/RC-X626E.irman'
p1634
NsS'akai/RC-S115'
p1635
NsS'akai/RC-W212F'
p1636
NsS'akai/RC-W152E'
p1637
NsS'akai/RC-S590'
p1638
NsS'akai/RC-C37'
p1639
NsS'akai/RC-X121E'
p1640
NssS'xtreamer'
p1641
(dp1642
S'xtreamer/Xtreamer'
p1643
NssS'tokai'
p1644
(dp1645
S'tokai/DVD-715'
p1646
NssS'tivo'
p1647
(dp1648
S'tivo/TIVO'
p1649
NsS'tivo/TIVO_Glo'
p1650
NsS'tivo/TIVO_Series_2'
p1651
NsS'tivo/DTV36'
p1652
NsS'tivo/TIVO_Series_1'
p1653
NsS'tivo/TIVO_Series_2.tira'
p1654
NsS'tivo/TIVO.irman'
p1655
NssS'typhoon'
p1656
(dp1657
S'typhoon/Starbox'
p1658
NsS'typhoon/RC-0718-3'
p1659
NssS'intervision'
p1660
(dp1661
S'intervision/Intervision'
p1662
NssS'avtoolbox'
p1663
(dp1664
S'avtoolbox/SW-5070'
p1665
NssS'elite'
p1666
(dp1667
S'elite/9361-3EL'
p1668
NssS'roadstar'
p1669
(dp1670
S'roadstar/DVD_2020H'
p1671
NssS'lenovo'
p1672
(dp1673
S'lenovo/RC2292601_01'
p1674
NssS'olevia'
p1675
(dp1676
S'olevia/RC-LTL'
p1677
NsS'olevia/RC-LTFN'
p1678
NssS'nordmende'
p1679
(dp1680
S'nordmende/VCR'
p1681
NssS'horizont'
p1682
(dp1683
S'horizont/RC6-2'
p1684
NssS'salora'
p1685
(dp1686
S'salora/RC-8800'
p1687
NsS'salora/SV6700'
p1688
NsS'salora/VCN621'
p1689
NsS'salora/PayTV'
p1690
NssS'universum'
p1691
(dp1692
S'universum/FT8180'
p1693
NsS'universum/B21421'
p1694
NsS'universum/VCR'
p1695
NsS'universum/SR420'
p1696
NsS'universum/FT8180A'
p1697
NsS'universum/RC-0892_00'
p1698
NsS'universum/VR743A'
p1699
NsS'universum/STEREO'
p1700
NsS'universum/TV'
p1701
NsS'universum/VR_2959'
p1702
NsS'universum/VR_2796'
p1703
NssS'mStation'
p1704
(dp1705
S'mStation/lircd.conf.mStation'
p1706
NssS'speed-link'
p1707
(dp1708
S'speed-link/SL-6399'
p1709
NsS'speed-link/SL-4112'
p1710
NssS'videologic'
p1711
(dp1712
S'videologic/RM-201'
p1713
NssS'sab'
p1714
(dp1715
S'sab/Explorer'
p1716
NssS'kworld'
p1717
(dp1718
S'kworld/DVBT-220'
p1719
NsS'kworld/DVBT-PE310'
p1720
NsS'kworld/lircd.conf.kworld'
p1721
NsS'kworld/ATSC_110'
p1722
NsS'kworld/PCI_Analog_TV_Card_Lite'
p1723
NsS'kworld/DVB-T_210'
p1724
NssS'funai'
p1725
(dp1726
S'funai/NF021RD.conf'
p1727
NsS'funai/VCR_21C-450'
p1728
NsS'funai/N9479'
p1729
NsS'funai/V3EE_MK6'
p1730
NsS'funai/V-8008CM_MKII'
p1731
NsS'funai/VCR_8307CA'
p1732
NssS'wilfa'
p1733
(dp1734
S'wilfa/RVC-17'
p1735
NssS'audiosource'
p1736
(dp1737
S'audiosource/SS-Three'
p1738
NssS'imon'
p1739
(dp1740
S'imon/lircd.conf.imon-rsc'
p1741
NsS'imon/lircd.conf.imon-knob'
p1742
NsS'imon/lircd.conf.imon-pad'
p1743
NsS'imon/lircd.conf.imon-2.4g'
p1744
NsS'imon/lircd.conf.imon-mceusb'
p1745
NsS'imon/lircd.conf.imon-ultrabay'
p1746
NsS'imon/lircd.conf.imon'
p1747
NsS'imon/lircd.conf.imon-antec-veris'
p1748
NsS'imon/lircd.conf.imon-2.4g-lt'
p1749
NssS'sherwood'
p1750
(dp1751
S'sherwood/RM-RX-23_43'
p1752
NsS'sherwood/RM-RVD-98L'
p1753
NsS'sherwood/RM-636'
p1754
NsS'sherwood/GC-1285'
p1755
NsS'sherwood/S2770R-CP-II'
p1756
NsS'sherwood/CD_1063-TR.irman'
p1757
NsS'sherwood/CD_1063-TR'
p1758
NsS'sherwood/RM-RV-98'
p1759
NsS'sherwood/RM-RV-N25'
p1760
NsS'sherwood/RM-101'
p1761
NsS'sherwood/GC-1205'
p1762
NsS'sherwood/RM-RD-61'
p1763
NssS'nakamichi'
p1764
(dp1765
S'nakamichi/RM-2CD'
p1766
NsS'nakamichi/CDPlayer4'
p1767
NsS'nakamichi/Egg'
p1768
NssS'televes'
p1769
(dp1770
S'televes/145075'
p1771
NssS'pinnacle_systems'
p1772
(dp1773
S'pinnacle_systems/lircd.conf.pctv'
p1774
NsS'pinnacle_systems/PCTV'
p1775
NsS'pinnacle_systems/lircd.conf.mini'
p1776
NsS'pinnacle_systems/PCTV_USB_STICK'
p1777
NsS'pinnacle_systems/PCTV_800i'
p1778
NsS'pinnacle_systems/RC1144201_00'
p1779
NsS'pinnacle_systems/RC-42D'
p1780
NssS'magnum'
p1781
(dp1782
S'magnum/5520VT'
p1783
NssS'sirius'
p1784
(dp1785
S'sirius/Sportster'
p1786
NsS'sirius/SBKB-3201KR'
p1787
NsS'sirius/Starmate_Replay_ST2'
p1788
NssS'domland'
p1789
(dp1790
S'domland/MH10CA'
p1791
NssS'philex'
p1792
(dp1793
S'philex/RC208-1'
p1794
NssS'xms'
p1795
(dp1796
S'xms/XMS503'
p1797
NssS'nextwave'
p1798
(dp1799
S'nextwave/EX-300'
p1800
NssS'total_media_in_hand'
p1801
(dp1802
S'total_media_in_hand/DVB-T'
p1803
NssS'grandin'
p1804
(dp1805
S'grandin/TV'
p1806
NssS'logitech'
p1807
(dp1808
S'logitech/Harmony_655'
p1809
NsS'logitech/Z-5500D'
p1810
NsS'logitech/HarmonyOne'
p1811
NsS'logitech/Harmony_520'
p1812
NsS'logitech/lircd.conf.logitech'
p1813
NssS'cambridge_audio'
p1814
(dp1815
S'cambridge_audio/RC-DVD53'
p1816
NsS'cambridge_audio/RC-340AC_540AC_640AC'
p1817
NsS'cambridge_audio/RC-DVD55'
p1818
NsS'cambridge_audio/X40A'
p1819
NsS'cambridge_audio/RC-540R_V2_0'
p1820
NsS'cambridge_audio/CD'
p1821
NssS'arcam'
p1822
(dp1823
S'arcam/AV200'
p1824
NsS'arcam/ARCAM'
p1825
NssS'rega'
p1826
(dp1827
S'rega/Solar'
p1828
NssS'd-link'
p1829
(dp1830
S'd-link/i2eye'
p1831
NsS'd-link/DSM320'
p1832
NsS'd-link/DSM-10'
p1833
NssS'finlux'
p1834
(dp1835
S'finlux/3628'
p1836
NssS'turtlebeach'
p1837
(dp1838
S'turtlebeach/audiotron'
p1839
NssS'supportplus'
p1840
(dp1841
S'supportplus/SP-URC-LCD-F15'
p1842
NsS'supportplus/SP-URC-81-L'
p1843
NsS'supportplus/RC9'
p1844
NssS'teco'
p1845
(dp1846
S'teco/TZRM67G'
p1847
NssS'pansat'
p1848
(dp1849
S'pansat/2700a'
p1850
NsS'pansat/SD3500'
p1851
NsS'pansat/2700'
p1852
NsS'pansat/2500A'
p1853
NssS'asus'
p1854
(dp1855
S'asus/lircd.conf.asusdh'
p1856
NsS'asus/lircd.conf.digimatrix'
p1857
NsS'asus/DigiMatrix'
p1858
NsS'asus/lircd.conf.asus'
p1859
NsS'asus/Digital_Home'
p1860
NsS'asus/TVBox'
p1861
NsS'asus/RC1974502_00'
p1862
NssS'pipi'
p1863
(dp1864
S'pipi/PiPiPC'
p1865
NssS'microsoft'
p1866
(dp1867
S'microsoft/Xbox360'
p1868
NsS'microsoft/Xbox_PG-8012'
p1869
NsS'microsoft/Xbox'
p1870
NsS'microsoft/Xbox_MCE'
p1871
NsS'microsoft/lircd.conf.xbox'
p1872
NssS'dynex'
p1873
(dp1874
S'dynex/DX-CVS4'
p1875
NssS'technisat'
p1876
(dp1877
S'technisat/100TS023'
p1878
NsS'technisat/103TS103'
p1879
NsS'technisat/100TS035'
p1880
NsS'technisat/FBTV235S'
p1881
NsS'technisat/FBPNA35'
p1882
NsS'technisat/100TS036'
p1883
NsS'technisat/ST3002S'
p1884
NsS'technisat/100TS008'
p1885
NsS'technisat/TS35'
p1886
NsS'technisat/lircd.conf.mediafocusI'
p1887
NsS'technisat/TTS35AI'
p1888
NsS'technisat/FBPVR335A'
p1889
NsS'technisat/ST_6000_E'
p1890
NssS'radix'
p1891
(dp1892
S'radix/SAT1'
p1893
NsS'radix/DTR-9000-Twin'
p1894
NsS'radix/2AD'
p1895
NsS'radix/DT-X1'
p1896
NsS'radix/SAT'
p1897
NsS'radix/Alpha_10_20'
p1898
NssS'belkin'
p1899
(dp1900
S'belkin/F5X019'
p1901
NssS'iodata'
p1902
(dp1903
S'iodata/lircd.conf.gvbctv5pci'
p1904
NssS'melectronic'
p1905
(dp1906
S'melectronic/PP3600'
p1907
NssS'irradio'
p1908
(dp1909
S'irradio/HIFI_1300V'
p1910
NssS'sungale'
p1911
(dp1912
S'sungale/JX-2002'
p1913
NssS'hokkaido'
p1914
(dp1915
S'hokkaido/Airconditioner'
p1916
NssS'aiwa'
p1917
(dp1918
S'aiwa/RC-X97'
p1919
NsS'aiwa/S79'
p1920
NsS'aiwa/RC-ZAS01'
p1921
NsS'aiwa/RC-ZAS02'
p1922
NsS'aiwa/RC-6AT03'
p1923
NsS'aiwa/RC-AAT11'
p1924
NsS'aiwa/RC-TN500EX'
p1925
NsS'aiwa/RC-7AS06'
p1926
NsS'aiwa/RC-8AT02'
p1927
NsS'aiwa/RC-TN5L'
p1928
NsS'aiwa/RC-TZ800'
p1929
NsS'aiwa/RC-TN380B'
p1930
NsS'aiwa/RC-TN320EX'
p1931
NsS'aiwa/RC-T503'
p1932
NsS'aiwa/RC-TXG710'
p1933
NsS'aiwa/RC-C202'
p1934
NsS'aiwa/RC-T501'
p1935
NsS'aiwa/RC-6AS14'
p1936
NsS'aiwa/RC-T504'
p1937
NsS'aiwa/RC-TZ650'
p1938
NsS'aiwa/RC-T506'
p1939
NsS'aiwa/RC-TD3'
p1940
NsS'aiwa/RC-C105'
p1941
NsS'aiwa/RC-TN330'
p1942
NsS'aiwa/RC-ZAT04'
p1943
NsS'aiwa/RC-ZVR04'
p1944
NsS'aiwa/RC-C003'
p1945
NsS'aiwa/RC-8AS04'
p1946
NsS'aiwa/RC-L60E'
p1947
NsS'aiwa/RC-950LE'
p1948
NsS'aiwa/RC-ZAS10'
p1949
NsS'aiwa/RC-TN520EX'
p1950
NsS'aiwa/RC-T770F'
p1951
NsS'aiwa/RC-L01'
p1952
NsS'aiwa/RC-TZ650.irman'
p1953
NsS'aiwa/RC-AAR02'
p1954
NsS'aiwa/RC-TG100'
p1955
NsS'aiwa/RC-BVR02'
p1956
NsS'aiwa/RC-TV2'
p1957
NsS'aiwa/RC-ZVR02'
p1958
NsS'aiwa/RC-AVT02'
p1959
NsS'aiwa/RC-5VP05'
p1960
NsS'aiwa/RC-CAS10'
p1961
NsS'aiwa/RC-TN360'
p1962
NsS'aiwa/XR-MD201'
p1963
NsS'aiwa/RC-TZ95ML'
p1964
NsS'aiwa/RC-6AS07'
p1965
NssS'replaytv'
p1966
(dp1967
S'replaytv/5000'
p1968
NssS'symphonic'
p1969
(dp1970
S'symphonic/SE4250'
p1971
NsS'symphonic/N9291'
p1972
NssS'bush'
p1973
(dp1974
S'bush/WS6680'
p1975
NsS'bush/DFTA1xi'
p1976
NsS'bush/4400'
p1977
NssS'thompson'
p1978
(dp1979
S'thompson/TIVO_THOMPSON'
p1980
NssS'palcom'
p1981
(dp1982
S'palcom/DSL-6_T'
p1983
NssS'axion'
p1984
(dp1985
S'axion/AXN-6075'
p1986
NssS'eltax'
p1987
(dp1988
S'eltax/Corniche'
p1989
NssS'fuba'
p1990
(dp1991
S'fuba/BAT970004A3'
p1992
NsS'fuba/ODE_520'
p1993
NsS'fuba/ST-007'
p1994
NssS'avermedia'
p1995
(dp1996
S'avermedia/RM-KV'
p1997
NsS'avermedia/lircd.conf.RM-FP'
p1998
NsS'avermedia/lircd.conf.vdomate'
p1999
NsS'avermedia/Studio_203'
p2000
NsS'avermedia/lircd.conf.tvstudio'
p2001
NsS'avermedia/DVB-T_771'
p2002
NsS'avermedia/AVerTV_Box_5'
p2003
NsS'avermedia/lircd.conf.avermedia.98'
p2004
NsS'avermedia/lircd.conf.avermedia98'
p2005
NsS'avermedia/lircd.conf.avermedia'
p2006
NsS'avermedia/RM-H7'
p2007
NssS'remotec'
p2008
(dp2009
S'remotec/RM900'
p2010
NsS'remotec/RM200-TV'
p2011
NsS'remotec/RM200-VCR'
p2012
NsS'remotec/VCR-1072'
p2013
NsS'remotec/lircd.conf.BW6130'
p2014
NsS'remotec/RM200'
p2015
NsS'remotec/RM200-AUX'
p2016
NsS'remotec/RM200-SAT'
p2017
NssS'get'
p2018
(dp2019
S'get/HD_PRV'
p2020
NssS'echostar'
p2021
(dp2022
S'echostar/DSB-616'
p2023
NsS'echostar/301_501_3100_5100_58xx_59xx'
p2024
NsS'echostar/DBS'
p2025
NsS'echostar/119420'
p2026
NsS'echostar/DSB-636'
p2027
NsS'echostar/AD3000IP'
p2028
NsS'echostar/SAT_301'
p2029
NsS'echostar/132578'
p2030
NsS'echostar/Dish_Network'
p2031
NssS'watson'
p2032
(dp2033
S'watson/FA_7039'
p2034
NsS'watson/FA_5150'
p2035
NsS'watson/FA_3619'
p2036
NssS'rademacher'
p2037
(dp2038
S'rademacher/9490'
p2039
NssS'guillemot'
p2040
(dp2041
S'guillemot/RemoteWizard-GN-263'
p2042
NssS'nagra'
p2043
(dp2044
S'nagra/TVA_Digital'
p2045
NssS'ea65'
p2046
(dp2047
S'ea65/lircd.conf.ea65'
p2048
NssS'rft'
p2049
(dp2050
S'rft/TV553'
p2051
NssS'viewsonic'
p2052
(dp2053
S'viewsonic/N3200w'
p2054
NsS'viewsonic/NextVision6'
p2055
NsS'viewsonic/98TR7BD-ONT-VSF'
p2056
NsS'viewsonic/RC00070P'
p2057
NssS'dishnet'
p2058
(dp2059
S'dishnet/301_501_3100_5100_58xx_59xx'
p2060
NsS'dishnet/SAT_301'
p2061
NsS'dishnet/Dish_Network'
p2062
NssS'tcm'
p2063
(dp2064
S'tcm/204-479.364'
p2065
NsS'tcm/212845'
p2066
NsS'tcm/TCM_225926'
p2067
NsS'tcm/204-479.362'
p2068
NsS'tcm/TCM_225925'
p2069
NsS'tcm/TCM_96518'
p2070
NsS'tcm/TCM_218681'
p2071
NsS'tcm/TCM_96518_439'
p2072
NssS'hometech'
p2073
(dp2074
S'hometech/TV'
p2075
NssS'evation'
p2076
(dp2077
S'evation/RC.irman'
p2078
NssS'daytron'
p2079
(dp2080
S'daytron/VCR32-DAU'
p2081
NssS'optimus'
p2082
(dp2083
S'optimus/STAV-3560'
p2084
NssS'national'
p2085
(dp2086
S'national/VEQ0461'
p2087
NssS'cenOmax'
p2088
(dp2089
S'cenOmax/F702'
p2090
NssS'megatron'
p2091
(dp2092
S'megatron/FM105.irman'
p2093
NssS'seg'
p2094
(dp2095
S'seg/CTV_3281-100_VTS'
p2096
NsS'seg/SEG-VCR4300'
p2097
NsS'seg/CT2802'
p2098
NsS'seg/DVD-430'
p2099
NsS'seg/E6900-X020A'
p2100
NsS'seg/SR-040'
p2101
NsS'seg/VR-F2PA'
p2102
NsS'seg/SR800'
p2103
NsS'seg/SR-021'
p2104
NsS'seg/SEG_97P1R2CCF0'
p2105
NsS'seg/VCR2000'
p2106
NssS'streamzap'
p2107
(dp2108
S'streamzap/PC_Remote'
p2109
NsS'streamzap/lircd.conf.streamzap'
p2110
NssS'tivii'
p2111
(dp2112
S'tivii/TiVii_650'
p2113
NssS'oceanic'
p2114
(dp2115
S'oceanic/TV'
p2116
NssS'crown'
p2117
(dp2118
S'crown/RC_647340'
p2119
NsS'crown/CD-80'
p2120
NssS'mustek'
p2121
(dp2122
S'mustek/RMC-V500'
p2123
NsS'mustek/DVD_R_100_LM'
p2124
NsS'mustek/RMC-V300'
p2125
NssS'samsung/AA59-00600A'
p2126
NsS'aconatic'
p2127
(dp2128
S'aconatic/AN-2121_DRS'
p2129
NssS'genius'
p2130
(dp2131
S'genius/DVB-T32'
p2132
NsS'genius/SW_5_1_HT'
p2133
NssS'sasem'
p2134
(dp2135
S'sasem/lircd.conf.sasem'
p2136
NssS'magnasonic'
p2137
(dp2138
S'magnasonic/TV'
p2139
NssS'octaltv'
p2140
(dp2141
S'octaltv/WebTV.irman'
p2142
NssS'wd'
p2143
(dp2144
S'wd/TV_Live'
p2145
NsS'wd/HDTVMediaPlayerV1'
p2146
NssS'lg'
p2147
(dp2148
S'lg/AKB69680403'
p2149
NsS'lg/PBAFA0189A'
p2150
NsS'lg/EV230'
p2151
NsS'lg/BD300'
p2152
NsS'lg/42H3000'
p2153
NsS'lg/6710V00090N'
p2154
NsS'lg/SERVICE_MENU'
p2155
NsS'lg/6710V00090D'
p2156
NsS'lg/6711R1P070B'
p2157
NsS'lg/AKB69680'
p2158
NsS'lg/AKB72915207'
p2159
NsS'lg/6710V00067G'
p2160
NsS'lg/6711R1P072B'
p2161
NsS'lg/MKJ61842704'
p2162
NsS'lg/6710T00009B'
p2163
NsS'lg/6710V00049G'
p2164
NsS'lg/VF28'
p2165
NsS'lg/CL172TW'
p2166
NsS'lg/6710V00133A'
p2167
NsS'lg/MKJ32022805'
p2168
NsS'lg/6710T00003B'
p2169
NsS'lg/AKB33871420'
p2170
NsS'lg/6710V00091N'
p2171
NsS'lg/6710V00070A'
p2172
NsS'lg/6710V00008K'
p2173
NsS'lg/6710CDAP01B'
p2174
NsS'lg/6711A20015N'
p2175
NsS'lg/BC205P'
p2176
NsS'lg/6711R1P073B'
p2177
NsS'lg/EC970W'
p2178
NsS'lg/MKJ40653802'
p2179
NsS'lg/6710CDAL01G'
p2180
NsS'lg/MKJ40653807'
p2181
NsS'lg/CC470TW'
p2182
NsS'lg/6710V00088B'
p2183
NsS'lg/6710V00005G'
p2184
NsS'lg/6710V00070A.irman'
p2185
NsS'lg/MKJ39170805'
p2186
NssS'huth'
p2187
(dp2188
S'huth/RC7011'
p2189
NssS'teleka'
p2190
(dp2191
S'teleka/STR_2060'
p2192
NssS'bose'
p2193
(dp2194
S'bose/WaveRadioCD.irman'
p2195
NsS'bose/WaveRadioCD'
p2196
NsS'bose/WAVERADIO'
p2197
NsS'bose/WaveMusicSystem'
p2198
NssS'askey'
p2199
(dp2200
S'askey/AS-218'
p2201
NssS'telecom_italia'
p2202
(dp2203
S'telecom_italia/Sirio'
p2204
NssS'ecotel'
p2205
(dp2206
S'ecotel/UNIVERSAL'
p2207
NssS'cox'
p2208
(dp2209
S'cox/DCT2224'
p2210
NsS'cox/ATLAS_DVR_PVR_5-DEVICE'
p2211
NssS'kathrein'
p2212
(dp2213
S'kathrein/UFD400'
p2214
NssS'technics'
p2215
(dp2216
S'technics/RAK-CH220WH'
p2217
NsS'technics/RAK-CH115WH'
p2218
NsS'technics/EUR643900'
p2219
NsS'technics/SA-DX950'
p2220
NsS'technics/EUR64796'
p2221
NsS'technics/EUR643880'
p2222
NsS'technics/SL-PS670A'
p2223
NsS'technics/RAK-SU301W'
p2224
NsS'technics/RAK-SL948WK'
p2225
NsS'technics/EUR645273'
p2226
NsS'technics/EUR645275'
p2227
NsS'technics/EUR64799'
p2228
NsS'technics/EUR642100'
p2229
NsS'technics/RAK-SC304W'
p2230
NsS'technics/EUR646497'
p2231
NsS'technics/RAK-SC510W'
p2232
NsS'technics/RAK-CH745WH'
p2233
NsS'technics/RAK-CH144WH'
p2234
NsS'technics/RAK-SA612WH'
p2235
NsS'technics/EUR64713'
p2236
NsS'technics/EUR643861'
p2237
NsS'technics/RAK-CH215WH'
p2238
NsS'technics/RAK-CH426WH.irman'
p2239
NsS'technics/RAK-HDB04WH'
p2240
NsS'technics/EURXP300'
p2241
NsS'technics/RAK-EHA16WH'
p2242
NsS'technics/EUR64798'
p2243
NsS'technics/RAK_SU129WH'
p2244
NssS'adaptec'
p2245
(dp2246
S'adaptec/lircd.conf.AVC-2410'
p2247
NssS'sharpsat'
p2248
(dp2249
S'sharpsat/T28'
p2250
NssS'lacie'
p2251
(dp2252
S'lacie/Lacinema_Premier'
p2253
NsS'lacie/PNE-N1SS'
p2254
NssS'autumnwave'
p2255
(dp2256
S'autumnwave/OnAir_GT'
p2257
NssS'sansonic'
p2258
(dp2259
S'sansonic/FT-300A'
p2260
NssS'raite'
p2261
(dp2262
S'raite/DVD'
p2263
NssS'audiosonic'
p2264
(dp2265
S'audiosonic/TV'
p2266
NsS'audiosonic/TXCD-1240'
p2267
NssS're.x'
p2268
(dp2269
S're.x/SDVD_926G'
p2270
NssS'majestic'
p2271
(dp2272
S'majestic/DVX377USB'
p2273
NssS'trust'
p2274
(dp2275
S'trust/RC-2400'
p2276
NssS'seiko'
p2277
(dp2278
S'seiko/MDL-1100RM'
p2279
NssS'amino'
p2280
(dp2281
S'amino/STB'
p2282
NssS'freecom'
p2283
(dp2284
S'freecom/MP35'
p2285
NssS'bbk'
p2286
(dp2287
S'bbk/PV400s'
p2288
NsS'bbk/DV963SM'
p2289
NsS'bbk/RC022-03R'
p2290
NsS'bbk/NP101S-v2'
p2291
NssS'bang&olufsen'
p2292
(dp2293
S'bang&olufsen/Beo4'
p2294
NssS'mark'
p2295
(dp2296
S'mark/TV'
p2297
NssS'starview'
p2298
(dp2299
S'starview/Starview_I'
p2300
NssS'pollin'
p2301
(dp2302
S'pollin/810-024'
p2303
NssS'napa'
p2304
(dp2305
S'napa/DAV-309'
p2306
NssS'supermax'
p2307
(dp2308
S'supermax/CABLE_BOX'
p2309
NssS'vlsystem'
p2310
(dp2311
S'vlsystem/lircd.conf.mplay'
p2312
NssS'hinen_electronics'
p2313
(dp2314
S'hinen_electronics/HSW0301'
p2315
NssS'harman_kardon'
p2316
(dp2317
S'harman_kardon/AVR10'
p2318
NsS'harman_kardon/RIA101'
p2319
NsS'harman_kardon/HD740'
p2320
NsS'harman_kardon/AVR25'
p2321
NsS'harman_kardon/DVD_1_RC'
p2322
NsS'harman_kardon/AVR240'
p2323
NsS'harman_kardon/HK3390'
p2324
NsS'harman_kardon/HK680'
p2325
NsS'harman_kardon/DVD_22'
p2326
NsS'harman_kardon/AVR320'
p2327
NsS'harman_kardon/HD730'
p2328
NsS'harman_kardon/AVR210.irman'
p2329
NssS'mcl'
p2330
(dp2331
S'mcl/Remote_Controller'
p2332
NssS'kaon'
p2333
(dp2334
S'kaon/KSC-i260MCO'
p2335
NsS'kaon/KTF-I2001CO'
p2336
NsS'kaon/KTF-100CO'
p2337
NssS'onida'
p2338
(dp2339
S'onida/TVE_21'
p2340
NsS'onida/DFX_7100'
p2341
NssS'nikon'
p2342
(dp2343
S'nikon/ML-L3'
p2344
NssS'leadtek'
p2345
(dp2346
S'leadtek/Y0400046'
p2347
NsS'leadtek/Y04G0004'
p2348
NsS'leadtek/lircd.conf.PVR2000'
p2349
NsS'leadtek/lircd.conf.RM-0010'
p2350
NsS'leadtek/Y0400052'
p2351
NsS'leadtek/lircd.conf.RM-0007'
p2352
NsS'leadtek/Y04G0033'
p2353
NssS'pcmak'
p2354
(dp2355
S'pcmak/lircd.conf.pcmak'
p2356
NssS'palladium'
p2357
(dp2358
S'palladium/RC-BM.irman'
p2359
NssS'triax'
p2360
(dp2361
S'triax/DVB_40S'
p2362
NssS'hughes'
p2363
(dp2364
S'hughes/HIRD-B2_GAEBO'
p2365
NsS'hughes/HIRD-B2'
p2366
NsS'hughes/HRMC-8'
p2367
NssS'canalsat'
p2368
(dp2369
S'canalsat/CanalSatHD'
p2370
NsS'canalsat/CanalSat'
p2371
NssS'fujtech'
p2372
(dp2373
S'fujtech/DVB-T'
p2374
NssS'bluesky'
p2375
(dp2376
S'bluesky/DV900'
p2377
NssS'zalman'
p2378
(dp2379
S'zalman/HD160XT'
p2380
NssS'kodak'
p2381
(dp2382
S'kodak/RC-201.irman'
p2383
NssS'aim'
p2384
(dp2385
S'aim/RC126'
p2386
NsS'aim/Radio'
p2387
NssS'pace'
p2388
(dp2389
S'pace/DTA100'
p2390
NsS'pace/RC-24'
p2391
NsS'pace/RC-30'
p2392
NsS'pace/DI4010I'
p2393
NsS'pace/DI4001N'
p2394
NsS'pace/Twin_Digital_TV_Recorder'
p2395
NsS'pace/MKT900A-A00'
p2396
NsS'pace/DS620'
p2397
NsS'pace/PRC100'
p2398
NsS'pace/DC621KU'
p2399
NsS'pace/MSS1000_IRD'
p2400
NsS'pace/DC420N'
p2401
NsS'pace/PACEMSS.raw'
p2402
NsS'pace/DS830NS'
p2403
NsS'pace/PSR800'
p2404
NsS'pace/MSS300'
p2405
NsS'pace/XSAT_CDTV410'
p2406
NsS'pace/DIGIBOX'
p2407
NsS'pace/DS420'
p2408
NsS'pace/PSR900'
p2409
NsS'pace/RC-17'
p2410
NsS'pace/DC551P'
p2411
NsS'pace/TDS460NNZ'
p2412
NsS'pace/RC-10'
p2413
NssS'syabas'
p2414
(dp2415
S'syabas/A-100'
p2416
NssS'daeumling'
p2417
(dp2418
S'daeumling/SR200'
p2419
NssS'fortec'
p2420
(dp2421
S'fortec/Lifetime'
p2422
NsS'fortec/Mercury2'
p2423
NssS'trice'
p2424
(dp2425
S'trice/TR-302'
p2426
NssS'quadral'
p2427
(dp2428
S'quadral/RC-804'
p2429
NssS'zenith'
p2430
(dp2431
S'zenith/MBR-3447'
p2432
NsS'zenith/C32V37'
p2433
NsS'zenith/ZN5015'
p2434
NsS'zenith/AKB36157102'
p2435
NsS'zenith/VCR'
p2436
NsS'zenith/TV'
p2437
NsS'zenith/VCR1'
p2438
NsS'zenith/ZN110'
p2439
NssS'hama'
p2440
(dp2441
S'hama/PhotoPlayer'
p2442
NsS'hama/Internet_Radio'
p2443
NssS'canon'
p2444
(dp2445
S'canon/WL-V1'
p2446
NsS'canon/WL-60'
p2447
NsS'canon/WL-D71'
p2448
NsS'canon/WL-DC100'
p2449
NsS'canon/WL-100'
p2450
NsS'canon/WL-D77'
p2451
NsS'canon/RC-1_RC-5'
p2452
NsS'canon/WL-D80'
p2453
NssS'rio'
p2454
(dp2455
S'rio/Rio_Audio'
p2456
NssS'holtek'
p2457
(dp2458
S'holtek/lircd.conf'
p2459
NssS'tevii'
p2460
(dp2461
S'tevii/S650_DVB-S2_USB'
p2462
NssS'solidtek'
p2463
(dp2464
S'solidtek/ACK-581'
p2465
NssS'panasonic'
p2466
(dp2467
S'panasonic/EUR571451'
p2468
NsS'panasonic/VEQ0910'
p2469
NsS'panasonic/VSQS0905'
p2470
NsS'panasonic/TX29AD10C'
p2471
NsS'panasonic/VEQ1562'
p2472
NsS'panasonic/N2QAJB000051.irman'
p2473
NsS'panasonic/EUR50350'
p2474
NsS'panasonic/Omnivision'
p2475
NsS'panasonic/N2QAKB000043'
p2476
NsS'panasonic/VEQ2249'
p2477
NsS'panasonic/N2QAKB000044'
p2478
NsS'panasonic/VEQ1100'
p2479
NsS'panasonic/VSQS1451'
p2480
NsS'panasonic/EUR64595'
p2481
NsS'panasonic/EUR642181'
p2482
NsS'panasonic/EUR511300'
p2483
NsS'panasonic/VEQ2380'
p2484
NsS'panasonic/VSQ_0305'
p2485
NsS'panasonic/EUR7631010'
p2486
NsS'panasonic/N2QAGB000002'
p2487
NsS'panasonic/TC-21E1R'
p2488
NsS'panasonic/N2QAGB000001'
p2489
NsS'panasonic/EUR642162'
p2490
NsS'panasonic/VEQ1944.irman'
p2491
NsS'panasonic/N2QAYB000064'
p2492
NsS'panasonic/VEQ1873'
p2493
NsS'panasonic/N2QAJB000051'
p2494
NsS'panasonic/NV-HS830'
p2495
NsS'panasonic/VEQ1656'
p2496
NsS'panasonic/LSSQ0225'
p2497
NsS'panasonic/VEQ2398'
p2498
NsS'panasonic/RAK-RX309W'
p2499
NsS'panasonic/EUR642195'
p2500
NsS'panasonic/RC4346_01B'
p2501
NsS'panasonic/VEQ0573'
p2502
NsS'panasonic/N2QAGB000015'
p2503
NsS'panasonic/N2QAGB000016'
p2504
NsS'panasonic/VEQ1883'
p2505
NsS'panasonic/N2QAKB000001'
p2506
NsS'panasonic/VCR'
p2507
NsS'panasonic/VSQ0407'
p2508
NsS'panasonic/VEQ1309'
p2509
NsS'panasonic/EUR644550'
p2510
NsS'panasonic/RAK-RX318W'
p2511
NsS'panasonic/EUR643800'
p2512
NsS'panasonic/EUR643804'
p2513
NsS'panasonic/N2QADC000006'
p2514
NsS'panasonic/MINI_STEREO'
p2515
NsS'panasonic/VEQ1962'
p2516
NsS'panasonic/AMP'
p2517
NsS'panasonic/VEQ1956'
p2518
NsS'panasonic/EUR648251'
p2519
NsS'panasonic/TX-25MK1'
p2520
NsS'panasonic/EUR7623X70'
p2521
NsS'panasonic/N2QAYB000329'
p2522
NsS'panasonic/NV-SD225'
p2523
NsS'panasonic/N2QAHB000022'
p2524
NsS'panasonic/N2QAHB0048'
p2525
NsS'panasonic/DSS'
p2526
NsS'panasonic/VEQ1253'
p2527
NsS'panasonic/EUR511211.irman'
p2528
S'panasonic/EUR511211.jpg'
p2529
sS'panasonic/VEQ0422'
p2530
NsS'panasonic/TU-TC20'
p2531
NsS'panasonic/N2QAYB000239'
p2532
NsS'panasonic/EUR511515A'
p2533
NsS'panasonic/EUR571465'
p2534
NsS'panasonic/EUR644853'
p2535
NsS'panasonic/EUR643824'
p2536
NsS'panasonic/TX-28CK2F'
p2537
NsS'panasonic/VEQ0552'
p2538
NsS'panasonic/EUR642182'
p2539
NsS'panasonic/TNQ8E0445'
p2540
NsS'panasonic/EUR7502XJO.irman'
p2541
NsS'panasonic/VEQ2051'
p2542
NsS'panasonic/EUR7720KL0'
p2543
NsS'panasonic/EUR7711110'
p2544
NsS'panasonic/VEQ1448'
p2545
NsS'panasonic/EUR511224'
p2546
NsS'panasonic/SA-AK25'
p2547
NsS'panasonic/EUR7702KF0'
p2548
NsS'panasonic/VEQ0520'
p2549
NsS'panasonic/EUR643826'
p2550
NsS'panasonic/EUR643820'
p2551
NsS'panasonic/VEQ1475.irman'
p2552
NsS'panasonic/TNQ2637'
p2553
NsS'panasonic/RC331401'
p2554
NsS'panasonic/EUR571739'
p2555
NsS'panasonic/RX-ED70'
p2556
NsS'panasonic/VSQS1559'
p2557
NsS'panasonic/TNQ8E0437'
p2558
NsS'panasonic/NV-FJ610'
p2559
NsS'panasonic/VSQS1480'
p2560
NsS'panasonic/EUR511211'
p2561
NsS'panasonic/QuintrixF'
p2562
NsS'panasonic/CarAudio_CARC60EX'
p2563
NsS'panasonic/RAK-RX928WK'
p2564
NsS'panasonic/VEQ0744'
p2565
NsS'panasonic/NV-F65_HQ'
p2566
NsS'panasonic/VEQ1697'
p2567
NsS'panasonic/EUR64485'
p2568
NsS'panasonic/TV'
p2569
NsS'panasonic/N2QAEC000012'
p2570
NsS'panasonic/EUR57510'
p2571
NsS'panasonic/LSSQ0226'
p2572
NsS'panasonic/VEQ0534'
p2573
NsS'panasonic/EUR644340'
p2574
NsS'panasonic/EUR644344'
p2575
NsS'panasonic/N2QAYB000010'
p2576
NsS'panasonic/EUR51169.irman'
p2577
NsS'panasonic/DVD'
p2578
NsS'panasonic/VEQ2138'
p2579
NsS'panasonic/Viera-42PZ700U'
p2580
NsS'panasonic/EUR7724KF0'
p2581
NsS'panasonic/EUR571110'
p2582
NsS'panasonic/TNQ8E0461-2'
p2583
NsS'panasonic/VEQ1141.irman'
p2584
NsS'panasonic/EUR648100'
p2585
NsS'panasonic/EUR7914Z20'
p2586
NsS'panasonic/EUR571756'
p2587
NsS'panasonic/RAK-RX314W'
p2588
NsS'panasonic/EUR7628030AR'
p2589
NsS'panasonic/RAK-SC957WK'
p2590
NsS'panasonic/VSQS0531'
p2591
NsS'panasonic/EUR51920'
p2592
NsS'panasonic/EUR644660'
p2593
NsS'panasonic/EUR7617010'
p2594
NsS'panasonic/VEQ1993'
p2595
NsS'panasonic/VEQ2142'
p2596
NsS'panasonic/EUR7621010'
p2597
NsS'panasonic/EUR7613Z6A'
p2598
NsS'panasonic/EUR571100'
p2599
NsS'panasonic/VEQ0615'
p2600
NsS'panasonic/VEQ2224.irman'
p2601
NsS'panasonic/EUR7662Y80'
p2602
NsS'panasonic/EUR7635010'
p2603
NsS'panasonic/EUR7702KE0'
p2604
NsS'panasonic/NV-SD44'
p2605
NsS'panasonic/EUR7702110'
p2606
NsS'panasonic/VEQ0709'
p2607
NssS't-online'
p2608
(dp2609
S't-online/S100'
p2610
NssS'generic'
p2611
(dp2612
S'generic/SONY20.conf'
p2613
NsS'generic/SONY12.conf'
p2614
NsS'generic/SANYO.conf'
p2615
NsS'generic/RECS80.conf'
p2616
NsS'generic/RC-6.conf'
p2617
NsS'generic/NEC-pulse.conf'
p2618
NsS'generic/NEC.conf'
p2619
NsS'generic/DENON.conf'
p2620
NsS'generic/MOTOROLA.conf'
p2621
NsS'generic/RC-5.conf'
p2622
NsS'generic/NEC-short-pulse.conf'
p2623
NsS'generic/RCMM-32.conf'
p2624
NsS'generic/XMP'
p2625
NssS'polaroid'
p2626
(dp2627
S'polaroid/DVP-1000'
p2628
NssS'blaupunkt'
p2629
(dp2630
S'blaupunkt/RC10'
p2631
NssS'konka'
p2632
(dp2633
S'konka/KK-Y199'
p2634
NsS'konka/KK-Y250A'
p2635
NssS'samy'
p2636
(dp2637
S'samy/SDX1100'
p2638
NssS'irlink'
p2639
(dp2640
S'irlink/lircd.conf.irlink.vs'
p2641
NssS'itv_media'
p2642
(dp2643
S'itv_media/iTV_Control'
p2644
NssS'shuttle'
p2645
(dp2646
S'shuttle/RC11B'
p2647
NsS'shuttle/PN31'
p2648
NssS'proscan'
p2649
(dp2650
S'proscan/PSVR72'
p2651
NssS'hivion'
p2652
(dp2653
S'hivion/SAT'
p2654
NssS'cosmel'
p2655
(dp2656
S'cosmel/TV_3790'
p2657
NssS'snazio'
p2658
(dp2659
S'snazio/Net_DVD_Cinema_HD'
p2660
NssS'tcuag'
p2661
(dp2662
S'tcuag/TVOON'
p2663
NssS'thinkgeek'
p2664
(dp2665
S'thinkgeek/LIGHTBULB'
p2666
NssS'yuan'
p2667
(dp2668
S'yuan/SmartVDO'
p2669
NssS'skymaster'
p2670
(dp2671
S'skymaster/DCI_9410'
p2672
NsS'skymaster/2424'
p2673
NsS'skymaster/DXL9300'
p2674
NsS'skymaster/2421'
p2675
NsS'skymaster/XLS_99'
p2676
NsS'skymaster/2417_2419'
p2677
NsS'skymaster/XL10'
p2678
NsS'skymaster/XL15'
p2679
NsS'skymaster/2416'
p2680
NssS'genus'
p2681
(dp2682
S'genus/DU1'
p2683
NssS'linksys'
p2684
(dp2685
S'linksys/WMA11B-R'
p2686
NssS'viewmaster'
p2687
(dp2688
S'viewmaster/RC-03'
p2689
NssS'thermaltake'
p2690
(dp2691
S'thermaltake/MediaLAB'
p2692
NssS'orava/ovara'
p2693
(dp2694
S'orava/ovara/RC-5500'
p2695
NssS'm3_electronic'
p2696
(dp2697
S'm3_electronic/Muvid_DVD-209'
p2698
NssS'cce'
p2699
(dp2700
S'cce/HPS-2290'
p2701
NsS'cce/RC-28'
p2702
NsS'cce/RC-27'
p2703
NsS'cce/88-X'
p2704
NssS'jbl'
p2705
(dp2706
S'jbl/Harmony'
p2707
NssS'infocus'
p2708
(dp2709
S'infocus/ScreenPlay_5000'
p2710
NssS'magnavox'
p2711
(dp2712
S'magnavox/NA387'
p2713
NsS'magnavox/VR9360'
p2714
NsS'magnavox/MDV450'
p2715
NsS'magnavox/TV_XK4353_CH02'
p2716
NsS'magnavox/PM435S'
p2717
NsS'magnavox/MFX-450'
p2718
NssS'humax'
p2719
(dp2720
S'humax/RC-536P'
p2721
NsS'humax/RS-101P'
p2722
NsS'humax/5400IRCI'
p2723
NsS'humax/RT-511V'
p2724
NsS'humax/VACI-5300'
p2725
NsS'humax/RS-521'
p2726
NsS'humax/F1-CI'
p2727
NssS'kiss'
p2728
(dp2729
S'kiss/DP-1500s'
p2730
NssS'elmak'
p2731
(dp2732
S'elmak/MT-1041'
p2733
NssS'pixelview'
p2734
(dp2735
S'pixelview/lircd.conf.playtv_pro'
p2736
NsS'pixelview/lircd.conf.playtv'
p2737
NsS'pixelview/lircd.conf.remotemaster'
p2738
NsS'pixelview/lircd.conf.playtv_bt878'
p2739
NssS'tekram'
p2740
(dp2741
S'tekram/lircd.conf.m230'
p2742
NssS'mceusb'
p2743
(dp2744
S'mceusb/lircd.conf.mceusb'
p2745
NssS'general_instrument'
p2746
(dp2747
S'general_instrument/550'
p2748
NsS'general_instrument/XRC-200'
p2749
NssS'hercules'
p2750
(dp2751
S'hercules/lircd.conf.smarttv_stereo'
p2752
NssS'in_focus'
p2753
(dp2754
S'in_focus/IRC_TC'
p2755
NssS'ads'
p2756
(dp2757
S'ads/PTV-334.irman'
p2758
NsS'ads/PTV-350'
p2759
NsS'ads/Instant_TV_DVB-T'
p2760
NssS'elitron'
p2761
(dp2762
S'elitron/UTK11'
p2763
NssS'yamaha'
p2764
(dp2765
S'yamaha/AX-960'
p2766
NsS'yamaha/RX-395-RDS'
p2767
NsS'yamaha/VK38010'
p2768
NsS'yamaha/VP79430'
p2769
NsS'yamaha/VK34080'
p2770
NsS'yamaha/VR50590-CX1'
p2771
NsS'yamaha/V215230'
p2772
NsS'yamaha/VP60840'
p2773
NsS'yamaha/V499920'
p2774
NsS'yamaha/VP59250'
p2775
NsS'yamaha/RAV14'
p2776
NsS'yamaha/RAV16'
p2777
NsS'yamaha/CDX-493'
p2778
NsS'yamaha/VI77760'
p2779
NsS'yamaha/DSP-A970'
p2780
NsS'yamaha/VR09390'
p2781
NsS'yamaha/RC-X750'
p2782
NsS'yamaha/VR50590'
p2783
NsS'yamaha/RAV294'
p2784
NsS'yamaha/VJ59810'
p2785
NsS'yamaha/RS-CX600'
p2786
NsS'yamaha/RS-CDX910'
p2787
NsS'yamaha/VU07410'
p2788
NsS'yamaha/AVPhile_715_RC'
p2789
NsS'yamaha/VT97430'
p2790
NsS'yamaha/RS-KX1'
p2791
NsS'yamaha/VP37310'
p2792
NsS'yamaha/VY71850'
p2793
NsS'yamaha/VP37320'
p2794
NsS'yamaha/VV27520'
p2795
NsS'yamaha/VQ95010.2'
p2796
NsS'yamaha/RAV302'
p2797
NsS'yamaha/RAV300'
p2798
NsS'yamaha/RX-CX1000.a'
p2799
NsS'yamaha/VQ95010'
p2800
NsS'yamaha/RC-X660'
p2801
NsS'yamaha/VP84950'
p2802
NsS'yamaha/RX-CX800'
p2803
NsS'yamaha/RAV283'
p2804
NsS'yamaha/RCX2'
p2805
NsS'yamaha/RX-V995'
p2806
NsS'yamaha/RAV285'
p2807
NsS'yamaha/VU07420'
p2808
NsS'yamaha/VV48620'
p2809
NsS'yamaha/TV'
p2810
NsS'yamaha/VS54120'
p2811
NsS'yamaha/VR81350'
p2812
NsS'yamaha/RAX9'
p2813
NsS'yamaha/VS71360'
p2814
NsS'yamaha/VP59040'
p2815
NsS'yamaha/VU71330'
p2816
NsS'yamaha/RAV190'
p2817
NsS'yamaha/RAV215'
p2818
NsS'yamaha/RAX6'
p2819
NsS'yamaha/RAX7'
p2820
NsS'yamaha/CDX-570'
p2821
NsS'yamaha/VM70300'
p2822
NsS'yamaha/VT06460'
p2823
NsS'yamaha/RX-450'
p2824
NsS'yamaha/RX-V495'
p2825
NsS'yamaha/RS-CD5'
p2826
NsS'yamaha/VM70290'
p2827
NsS'yamaha/R-V1105'
p2828
NsS'yamaha/RS-CX1000'
p2829
NsS'yamaha/TX-1000'
p2830
NsS'yamaha/VI47320'
p2831
NsS'yamaha/DSP-A1000'
p2832
NsS'yamaha/RAV-12'
p2833
NsS'yamaha/RS-K3'
p2834
NsS'yamaha/RAV207'
p2835
NsS'yamaha/RX-V850'
p2836
NsS'yamaha/RCX'
p2837
NsS'yamaha/VJI5420'
p2838
NsS'yamaha/RAV243'
p2839
NsS'yamaha/VQ08640'
p2840
NsS'yamaha/RS-KR4'
p2841
NsS'yamaha/RAV364'
p2842
NsS'yamaha/VU50620'
p2843
NssS'sky'
p2844
(dp2845
S'sky/SkyHD'
p2846
NsS'sky/NAVIGATOR'
p2847
NsS'sky/SKY+_DVB-S'
p2848
NsS'sky/Navigator'
p2849
NsS'sky/Rev4'
p2850
NsS'sky/Sky_Rev_6'
p2851
NssS'nikko'
p2852
(dp2853
S'nikko/NK-1000'
p2854
NssS'bench'
p2855
(dp2856
S'bench/KH2800'
p2857
NssS'westinghouse'
p2858
(dp2859
S'westinghouse/LVM-47W1'
p2860
NsS'westinghouse/RMT-05'
p2861
NssS'traxis'
p2862
(dp2863
S'traxis/3500'
p2864
NssS'adb'
p2865
(dp2866
S'adb/I-CAN_3000'
p2867
NssS'schwaiger'
p2868
(dp2869
S'schwaiger/DSR_6020'
p2870
NssS'citizen'
p2871
(dp2872
S'citizen/JX-2022C'
p2873
NssS'accessmedia'
p2874
(dp2875
S'accessmedia/ThinBox'
p2876
NssS'ultrawave'
p2877
(dp2878
S'ultrawave/3500PFTA'
p2879
NssS'mitaki'
p2880
(dp2881
S'mitaki/43'
p2882
NssS'smoovietv'
p2883
(dp2884
S'smoovietv/SMOOVIETV.irman'
p2885
S'smoovietv/SMOOVIETV.jpg'
p2886
ssS'mivar'
p2887
(dp2888
S'mivar/x1'
p2889
NssS'imex'
p2890
(dp2891
S'imex/IM-1313'
p2892
NsS'imex/IM-1010'
p2893
NsS'imex/IM-1313_027'
p2894
NssS'sigmatek'
p2895
(dp2896
S'sigmatek/X100'
p2897
NsS'sigmatek/XMB-510-PRO'
p2898
NssS'siemens'
p2899
(dp2900
S'siemens/FB33ATS'
p2901
NsS'siemens/FB31top'
p2902
NsS'siemens/FB400'
p2903
NsS'siemens/FM_638'
p2904
NsS'siemens/FB405'
p2905
NssS'medion'
p2906
(dp2907
S'medion/MD_81035'
p2908
NsS'medion/JX-2006B'
p2909
NsS'medion/MD_41666'
p2910
NsS'medion/MD-5410'
p2911
NsS'medion/MD_81880'
p2912
NsS'medion/MD_41169'
p2913
NsS'medion/MD_9025'
p2914
NsS'medion/MD_4688'
p2915
NsS'medion/2020'
p2916
NsS'medion/RC2000'
p2917
NsS'medion/MD_4689'
p2918
NsS'medion/MD_3830'
p2919
NssS'falcon'
p2920
(dp2921
S'falcon/VT-1000'
p2922
NssS'scientific_atlanta'
p2923
(dp2924
S'scientific_atlanta/RC-U49C+'
p2925
NsS'scientific_atlanta/Explorer_2000'
p2926
NsS'scientific_atlanta/E940'
p2927
NsS'scientific_atlanta/RM9834'
p2928
NsS'scientific_atlanta/3250'
p2929
NsS'scientific_atlanta/AT8400'
p2930
NsS'scientific_atlanta/1840'
p2931
NsS'scientific_atlanta/RNG-150'
p2932
NsS'scientific_atlanta/Explorer_8300_HD'
p2933
NssS'daewoo'
p2934
(dp2935
S'daewoo/14Q3_TV'
p2936
NsS'daewoo/VP-200_VCR'
p2937
NsS'daewoo/DV-K281K'
p2938
NsS'daewoo/97P1R2ZDA0'
p2939
NsS'daewoo/R-43A08'
p2940
NsS'daewoo/R-40A06'
p2941
NsS'daewoo/R-40A10'
p2942
NsS'daewoo/R-40A15'
p2943
NsS'daewoo/IR7132-A'
p2944
NsS'daewoo/DV-800'
p2945
NsS'daewoo/97P1RA3AB0'
p2946
NsS'daewoo/R-22'
p2947
NsS'daewoo/97P04701'
p2948
NsS'daewoo/DS608P'
p2949
NsS'daewoo/VQ25I'
p2950
NsS'daewoo/DVDS150'
p2951
NsS'daewoo/R-28B03'
p2952
NsS'daewoo/DV-F24D'
p2953
NssS'motorola'
p2954
(dp2955
S'motorola/IRC442'
p2956
NsS'motorola/VIP_1200'
p2957
NsS'motorola/DigitalCable'
p2958
NsS'motorola/RC1445302-00B-REV2'
p2959
NsS'motorola/QIP2500'
p2960
NsS'motorola/DCT2524'
p2961
NsS'motorola/DCT2244'
p2962
NsS'motorola/DCH3200'
p2963
NsS'motorola/SRC-200A'
p2964
NsS'motorola/Millenium_4_Universal'
p2965
NsS'motorola/DCT6200.irman'
p2966
NsS'motorola/DCT2000'
p2967
NsS'motorola/IRC451'
p2968
NsS'motorola/DVi2030'
p2969
NsS'motorola/DCH3416'
p2970
NsS'motorola/DTH320-4'
p2971
NsS'motorola/DRC800'
p2972
NsS'motorola/DTA100'
p2973
NsS'motorola/VIP_1510'
p2974
NsS'motorola/DTH355'
p2975
NsS'motorola/DCT2224'
p2976
NsS'motorola/920'
p2977
NsS'motorola/QIP6200-2'
p2978
NssS'fagor'
p2979
(dp2980
S'fagor/TEDI100'
p2981
NssS'Kenmore'
p2982
(dp2983
S'Kenmore/Kenmore_253_79081'
p2984
NssS'accesshd'
p2985
(dp2986
S'accesshd/DTA1080U'
p2987
NssS'sagem'
p2988
(dp2989
S'sagem/DVB-T-Receiver'
p2990
NsS'sagem/HD103-C'
p2991
NsS'sagem/CABLE_DECODER'
p2992
NssS'netgem'
p2993
(dp2994
S'netgem/iPlayer'
p2995
NssS'twinhan'
p2996
(dp2997
S'twinhan/MagicBox'
p2998
NsS'twinhan/DTV'
p2999
NsS'twinhan/AD-SP200'
p3000
NssS'conrad'
p3001
(dp3002
S'conrad/Promo-8'
p3003
NsS'conrad/RSLT2'
p3004
NsS'conrad/MF_150'
p3005
NsS'conrad/Promo2_006'
p3006
NssS'cisco'
p3007
(dp3008
S'cisco/RNG-150'
p3009
NssS'lutron'
p3010
(dp3011
S'lutron/MaestroIR'
p3012
NsS'lutron/GRX-IT'
p3013
NssS'silitek'
p3014
(dp3015
S'silitek/lircd.conf.silitek'
p3016
NssS'proplay'
p3017
(dp3018
S'proplay/PS2'
p3019
NssS'zolid'
p3020
(dp3021
S'zolid/ZOL100'
p3022
NssS'aureal'
p3023
(dp3024
S'aureal/lircd.conf.atwf83'
p3025
NssS'bork'
p3026
(dp3027
S'bork/DV_VKM_1643_SI'
p3028
NssS'images'
p3029
NsS'monoprice'
p3030
(dp3031
S'monoprice/monoprice_hdx(c)-501e'
p3032
NssS'coolsat'
p3033
(dp3034
S'coolsat/Pro_4000'
p3035
NsS'coolsat/Pro_5000'
p3036
NssS"morgan's_daytona"
p3037
(dp3038
S"morgan's_daytona/T15"
p3039
NsS"morgan's_daytona/Tornado"
p3040
NssS'curtis_electronics'
p3041
(dp3042
S'curtis_electronics/TV'
p3043
NssS'gvc'
p3044
(dp3045
S'gvc/RM-RK50'
p3046
NssS'provideo'
p3047
(dp3048
S'provideo/PV951'
p3049
NsS'provideo/lircd.conf.pv951'
p3050
NssS'fox'
p3051
(dp3052
S'fox/RC_5-Bp2'
p3053
NssS'ice'
p3054
(dp3055
S'ice/TV'
p3056
NssS'creative'
p3057
(dp3058
S'creative/lircd.conf.infracd'
p3059
NsS'creative/lircd.conf.livedrive'
p3060
NsS'creative/DDTS-100'
p3061
NsS'creative/RM-1000'
p3062
NsS'creative/CD'
p3063
NsS'creative/RM-1800'
p3064
NsS'creative/RM-900'
p3065
NsS'creative/CD.old'
p3066
NsS'creative/RM-900.irman'
p3067
NsS'creative/lircd.conf.breakoutbox'
p3068
NsS'creative/lircd.conf.creative'
p3069
NsS'creative/lircd.conf.alsa_usb'
p3070
NsS'creative/JUKEBOX_3'
p3071
NsS'creative/RM-850'
p3072
NsS'creative/RM-1500'
p3073
NssS'pioneer'
p3074
(dp3075
S'pioneer/CU-XR015'
p3076
NsS'pioneer/CU-XR014'
p3077
NsS'pioneer/CU-XC004.irman'
p3078
NsS'pioneer/VXX2801'
p3079
NsS'pioneer/AXD-7381'
p3080
NsS'pioneer/BR-V3_CATV'
p3081
NsS'pioneer/PD-M650'
p3082
NsS'pioneer/AXD-1531'
p3083
NsS'pioneer/CU-XR019'
p3084
NsS'pioneer/VSX9300'
p3085
NsS'pioneer/PD-F1007'
p3086
NsS'pioneer/CU-DV042'
p3087
NsS'pioneer/CU-SX109'
p3088
NsS'pioneer/CU-SX039'
p3089
NsS'pioneer/CU-PD038'
p3090
NsS'pioneer/CU-SX070'
p3091
NsS'pioneer/CU-CLD106'
p3092
NsS'pioneer/CU-VSX159'
p3093
NsS'pioneer/CD'
p3094
NsS'pioneer/CU-PD046'
p3095
NsS'pioneer/CU-PD089'
p3096
NsS'pioneer/DBR-S210F'
p3097
NsS'pioneer/DEH-D8850'
p3098
NsS'pioneer/CU-XR039'
p3099
NsS'pioneer/SR-90'
p3100
NsS'pioneer/CU-XR050'
p3101
NsS'pioneer/XV-DV303'
p3102
NsS'pioneer/CU-A011'
p3103
NsS'pioneer/CU-PD085'
p3104
NsS'pioneer/CU-A019'
p3105
NsS'pioneer/VXX2910'
p3106
NsS'pioneer/CU-A009'
p3107
NsS'pioneer/CU-PD045'
p3108
NsS'pioneer/RU-V103'
p3109
NsS'pioneer/CU-SX022'
p3110
NsS'pioneer/CU-CLD067'
p3111
NsS'pioneer/UR4-P360'
p3112
NsS'pioneer/CU-PD069'
p3113
NsS'pioneer/CU-CLD115'
p3114
NsS'pioneer/CU-XR032'
p3115
NsS'pioneer/CU-PD008'
p3116
NsS'pioneer/AXD-7305'
p3117
NsS'pioneer/CU-PD052'
p3118
NsS'pioneer/AXD-7306'
p3119
NsS'pioneer/CU-SX092'
p3120
NsS'pioneer/CU-SX091'
p3121
NsS'pioneer/CU-XC004'
p3122
NsS'pioneer/VXX2702'
p3123
NsS'pioneer/XXD3067'
p3124
NsS'pioneer/CU-PD096'
p3125
NsS'pioneer/CU-VSX107'
p3126
NsS'pioneer/PD-202'
p3127
NsS'pioneer/CU-A002'
p3128
NsS'pioneer/CU-A001'
p3129
NssS'sejin_electron'
p3130
(dp3131
S'sejin_electron/SWP-D3956W-KR1'
p3132
NssS'plu2'
p3133
(dp3134
S'plu2/DVX-345pro'
p3135
NssS'slim_art'
p3136
(dp3137
S'slim_art/SA-100'
p3138
NssS'bellagio'
p3139
(dp3140
S'bellagio/P807'
p3141
NssS'lexicon'
p3142
(dp3143
S'lexicon/750-10978'
p3144
NssS'epson'
p3145
(dp3146
S'epson/12807990'
p3147
NsS'epson/ELPST12'
p3148
NssS'amstrad'
p3149
(dp3150
S'amstrad/SRX2101'
p3151
NsS'amstrad/SRD650'
p3152
NsS'amstrad/SRX340'
p3153
NsS'amstrad/DX3070'
p3154
NssS'beko'
p3155
(dp3156
S'beko/NR_KK14T61_TX'
p3157
NsS'beko/14B3M04-TXB'
p3158
NssS'l&s_electronic'
p3159
(dp3160
S'l&s_electronic/HS-910.irman'
p3161
NssS'leadership'
p3162
(dp3163
S'leadership/GOTEC_3801'
p3164
NssS'snapstream'
p3165
(dp3166
S'snapstream/Firefly-Mini'
p3167
NssS'captiveworks'
p3168
(dp3169
S'captiveworks/CW800s'
p3170
NssS'oritron'
p3171
(dp3172
S'oritron/DVD'
p3173
NssS'starsat'
p3174
(dp3175
S'starsat/120'
p3176
NssS'ruwido'
p3177
(dp3178
S'ruwido/Easytip_z1'
p3179
NsS'ruwido/Easytip_2'
p3180
NsS'ruwido/Cyberclick'
p3181
NssS'aspire_digital'
p3182
(dp3183
S'aspire_digital/RW_DVD+ReWritable'
p3184
NssS'rc-5'
p3185
(dp3186
S'rc-5/RC-5-a'
p3187
NsS'rc-5/RC-5'
p3188
NsS'rc-5/RC-5-extented'
p3189
NssS'sumvision'
p3190
(dp3191
S'sumvision/DVD'
p3192
NssS'fujitsu_siemens'
p3193
(dp3194
S'fujitsu_siemens/RC812'
p3195
NsS'fujitsu_siemens/RC811'
p3196
NsS'fujitsu_siemens/RC1124121'
p3197
NsS'fujitsu_siemens/KWR3020'
p3198
NssS'phonotrend'
p3199
(dp3200
S'phonotrend/Prestige_DVD2788'
p3201
NssS'vizio'
p3202
(dp3203
S'vizio/LCD_TV'
p3204
NsS'vizio/VUR8'
p3205
NsS'vizio/VX37L'
p3206
NssS'mbo'
p3207
(dp3208
S'mbo/10-in-1'
p3209
NssS'italtel'
p3210
(dp3211
S'italtel/SAT'
p3212
NssS'nse'
p3213
(dp3214
S'nse/URC20-C8'
p3215
NsS'nse/URC22B-7'
p3216
NsS'nse/URC22B-12'
p3217
NssS'multitec'
p3218
(dp3219
S'multitec/1030'
p3220
NssS'xsat'
p3221
(dp3222
S'xsat/XSAT_CDTV410'
p3223
NssS'graetz'
p3224
(dp3225
S'graetz/Graetz'
p3226
NssS'packard_bell'
p3227
(dp3228
S'packard_bell/packard_bell'
p3229
NsS'packard_bell/lircd.conf.packard_bell'
p3230
NssS'barco'
p3231
(dp3232
S'barco/RC5'
p3233
NssS'parex'
p3234
(dp3235
S'parex/IR9703'
p3236
NssS'rowa'
p3237
(dp3238
S'rowa/RDVD104'
p3239
NssS'entone'
p3240
(dp3241
S'entone/URC-4021ABA1-006-R'
p3242
NsS'entone/URC-4021ABA1-006-R.conf'
p3243
S'entone/URC-4021ABA1-006-R.jpg'
p3244
ssS'robotron'
p3245
(dp3246
S'robotron/RCS-9085'
p3247
NssS'harting_helling'
p3248
(dp3249
S'harting_helling/H+H_8in1'
p3250
NssS'devinput'
p3251
(dp3252
S'devinput/lircd.conf.devinput'
p3253
NssS'nubert'
p3254
(dp3255
S'nubert/AW-800'
p3256
NssS'rca'
p3257
(dp3258
S'rca/RCR311TCM1'
p3259
NsS'rca/F20507CP'
p3260
NsS'rca/33379-1'
p3261
NsS'rca/RS2300'
p3262
NsS'rca/RCZ_111_SJ1G'
p3263
NsS'rca/RCA312W'
p3264
NsS'rca/Dish_Network'
p3265
NsS'rca/D770'
p3266
NsS'rca/RCR815'
p3267
NsS'rca/RCR_110D_A1.irman'
p3268
NsS'rca/RCR160SBM1'
p3269
NsS'rca/R130A1'
p3270
NsS'rca/DSS.old'
p3271
NsS'rca/RCU600RS'
p3272
NsS'rca/RCU600M'
p3273
NsS'rca/DB200'
p3274
NsS'rca/DSS_RG_RH'
p3275
NsS'rca/DTA800b'
p3276
NsS'rca/DTA800B1'
p3277
NsS'rca/CRK76CA2'
p3278
NsS'rca/VR637HF'
p3279
NsS'rca/TV_VCR'
p3280
NsS'rca/RCU410WMS'
p3281
NssS'frahm'
p3282
(dp3283
S'frahm/MD300'
p3284
NssS'sigma_designs'
p3285
(dp3286
S'sigma_designs/lircd.conf.realmagic'
p3287
NssS'expressvu'
p3288
(dp3289
S'expressvu/SAT_3100'
p3290
NsS'expressvu/301_501_3100_5100_58xx_59xx'
p3291
NssS'hq'
p3292
(dp3293
S'hq/RC_Univers25'
p3294
NsS'hq/RC_Univers_20'
p3295
NssS'vestel'
p3296
(dp3297
S'vestel/TV'
p3298
NsS'vestel/SF118'
p3299
NssS'tensai'
p3300
(dp3301
S'tensai/5340fb'
p3302
NsS'tensai/TVR_260'
p3303
NssS'hb'
p3304
(dp3305
S'hb/DIGITAL'
p3306
NssS'q-sonic'
p3307
(dp3308
S'q-sonic/Master_Remote_PC_166'
p3309
NsS'q-sonic/Master_Remote_6in1'
p3310
NsS'q-sonic/Master_Remote_PC_TV'
p3311
NssS'tab_electronics'
p3312
(dp3313
S'tab_electronics/Robot_Kit'
p3314
NssS'metronic'
p3315
(dp3316
S'metronic/SAT_441400'
p3317
NsS'metronic/060501'
p3318
NssS'allsat'
p3319
(dp3320
S'allsat/SRC5893'
p3321
NssS'hermstedt'
p3322
(dp3323
S'hermstedt/Hifidelio'
p3324
NssS'fresat'
p3325
(dp3326
S'fresat/SER-3000PL_A'
p3327
NssS'telenet'
p3328
(dp3329
S'telenet/DB-AD110'
p3330
NsS'telenet/DB-AD100'
p3331
NssS'acer'
p3332
(dp3333
S'acer/AT3201W'
p3334
NsS'acer/lircd.conf.Aspire_6530G'
p3335
NsS'acer/RC-802'
p3336
NsS'acer/RC-17DE0.irman'
p3337
NssS'loewe'
p3338
(dp3339
S'loewe/FB200'
p3340
NsS'loewe/FB_3000'
p3341
NsS'loewe/150_TV.irman'
p3342
NsS'loewe/150_TV'
p3343
NsS'loewe/Dialog_control'
p3344
NssS'insignia'
p3345
(dp3346
S'insignia/WIR147002-8301'
p3347
NssS'trio'
p3348
(dp3349
S'trio/xms007'
p3350
NssS'tesla'
p3351
(dp3352
S'tesla/VCR'
p3353
NsS'tesla/TV'
p3354
NsS'tesla/32LCD70WDGHD'
p3355
NsS'tesla/49-900-023'
p3356
NssS'universal'
p3357
(dp3358
S'universal/CV300_111'
p3359
NsS'universal/AV7-RZ-506'
p3360
NsS'universal/RZ-55'
p3361
NsS'universal/RM-786'
p3362
NsS'universal/MELICONI_PERSONAL'
p3363
NsS'universal/GumBody'
p3364
NsS'universal/URC22B'
p3365
NsS'universal/ISP_4187'
p3366
NsS'universal/MAXY1708'
p3367
NsS'universal/846M'
p3368
NsS'universal/8in1'
p3369
NsS'universal/RC_Univers_20'
p3370
NsS'universal/REMOTE_MASTER_1000_0171'
p3371
NsS'universal/R7'
p3372
NsS'universal/URC-7532'
p3373
NsS'universal/Promo2_006'
p3374
NsS'universal/CV300_089'
p3375
NsS'universal/UR24A'
p3376
NsS'universal/LT_3607'
p3377
NsS'universal/TCM_64745'
p3378
NsS'universal/CV300_102'
p3379
NsS'universal/SupportPlus'
p3380
NsS'universal/URC_R5.irman'
p3381
NsS'universal/CME'
p3382
NsS'universal/Knopex'
p3383
NsS'universal/MC-10'
p3384
NsS'universal/URC-6012w'
p3385
NsS'universal/CV150'
p3386
NsS'universal/TCM_96518_439'
p3387
NsS'universal/REMOTE_MASTER_1000_0432'
p3388
NsS'universal/RM-V211T'
p3389
NsS'universal/CV250'
p3390
NsS'universal/TCM_96518'
p3391
NssS'gradiente'
p3392
(dp3393
S'gradiente/D-10'
p3394
NsS'gradiente/MDP-200'
p3395
NsS'gradiente/GSD-100'
p3396
NssS'irobot'
p3397
(dp3398
S'irobot/Roomba_Discovery_SE'
p3399
NsS'irobot/Roomba'
p3400
NsS'irobot/Roomba_Discovery_4220'
p3401
NssS'general'
p3402
(dp3403
S'general/VCR'
p3404
NssS'khl'
p3405
(dp3406
S'khl/REC-R3000'
p3407
NssS'tevion'
p3408
(dp3409
S'tevion/MD_41666_860'
p3410
NsS'tevion/TEV1020'
p3411
NsS'tevion/MD_3607'
p3412
NsS'tevion/TDR-250HD'
p3413
NsS'tevion/MD_41666_782'
p3414
NsS'tevion/RS20536'
p3415
NsS'tevion/MD81302'
p3416
NsS'tevion/MD_4689'
p3417
NsS'tevion/MD80383'
p3418
NsS'tevion/MD_3830'
p3419
NsS'tevion/MDC-982PLL'
p3420
NsS'tevion/TV_DVD_5506_RF'
p3421
NsS'tevion/MD_81299'
p3422
NsS'tevion/MD_80383'
p3423
NsS'tevion/DFA_2005'
p3424
NsS'tevion/DVD2002'
p3425
NsS'tevion/DVD_4000'
p3426
NsS'tevion/DVD2001'
p3427
NsS'tevion/TDR51DV'
p3428
NsS'tevion/SAT928'
p3429
NsS'tevion/MD6461'
p3430
NsS'tevion/TE-0603'
p3431
NsS'tevion/MD_81035'
p3432
NssS'umax'
p3433
(dp3434
S'umax/D-701'
p3435
NssS'ericsson'
p3436
(dp3437
S'ericsson/lircd.conf.bte'
p3438
NssS'lemon'
p3439
(dp3440
S'lemon/Volksbox'
p3441
NssS'nad'
p3442
(dp3443
S'nad/SR6'
p3444
NsS'nad/SR712'
p3445
NsS'nad/RC512'
p3446
NsS'nad/CDP-5425'
p3447
NsS'nad/451'
p3448
NsS'nad/AVR2'
p3449
NssS't+a'
p3450
(dp3451
S't+a/F1'
p3452
NsS't+a/F100'
p3453
NssS'fujitsu'
p3454
(dp3455
S'fujitsu/CP300375-01'
p3456
NssS'denon'
p3457
(dp3458
S'denon/RC-917'
p3459
NsS'denon/RC-861'
p3460
NsS'denon/RC-860'
p3461
NsS'denon/RC-181'
p3462
NsS'denon/RC-840'
p3463
NsS'denon/RC-843'
p3464
NsS'denon/RC-841'
p3465
NsS'denon/RC-129A'
p3466
NsS'denon/RC-846'
p3467
NsS'denon/RC-1075'
p3468
NsS'denon/RC-828'
p3469
NsS'denon/RC-543.irman'
p3470
NsS'denon/RC-241'
p3471
NsS'denon/RC-267'
p3472
NsS'denon/RC-266'
p3473
NsS'denon/RC-203'
p3474
NsS'denon/RC-165'
p3475
NsS'denon/RC-224'
p3476
NsS'denon/RC-220'
p3477
NsS'denon/RC-896'
p3478
NsS'denon/RC-897'
p3479
NsS'denon/RC-1120'
p3480
NsS'denon/RC-877'
p3481
NsS'denon/RC-195'
p3482
NsS'denon/RC-194'
p3483
NsS'denon/RC-176'
p3484
NsS'denon/RC-830'
p3485
NsS'denon/RC-543'
p3486
NsS'denon/RC-812'
p3487
NsS'denon/RC-541'
p3488
NsS'denon/RC-258'
p3489
NsS'denon/RC-818'
p3490
NsS'denon/RC-117'
p3491
NsS'denon/RC-251'
p3492
NsS'denon/RC-1017'
p3493
NsS'denon/RC-152'
p3494
NsS'denon/RC-1095'
p3495
NsS'denon/RC-174'
p3496
NssS'manhattan'
p3497
(dp3498
S'manhattan/DVD_MT_2215'
p3499
NsS'manhattan/TV_MT_5154'
p3500
NssS'video7'
p3501
(dp3502
S'video7/RC750'
p3503
NssS'osram'
p3504
(dp3505
S'osram/OSRAM.conf'
p3506
NssS'voxson'
p3507
(dp3508
S'voxson/DVD250'
p3509
NssS'durabrand'
p3510
(dp3511
S'durabrand/PTV141'
p3512
NssS'chiro'
p3513
(dp3514
S'chiro/C-802'
p3515
NssS'audiovox'
p3516
(dp3517
S'audiovox/SIR_CMB3'
p3518
NsS'audiovox/Sirius_PNP2'
p3519
NssS'ms-tech'
p3520
(dp3521
S'ms-tech/MCx00'
p3522
NsS'ms-tech/HTPC'
p3523
NssS'onkyo'
p3524
(dp3525
S'onkyo/RC-104C'
p3526
NsS'onkyo/RC-710M'
p3527
NsS'onkyo/RC-246C'
p3528
NsS'onkyo/RC-425DV'
p3529
NsS'onkyo/Remote_Interactive_TX-SR505SE'
p3530
NsS'onkyo/RC-606S'
p3531
NsS'onkyo/RC-385S'
p3532
NsS'onkyo/RC-308C'
p3533
NsS'onkyo/RC-682M'
p3534
NsS'onkyo/RC-340C'
p3535
NsS'onkyo/RC-344S'
p3536
NsS'onkyo/RC-447M'
p3537
NsS'onkyo/RC-184s'
p3538
NsS'onkyo/RC-632M'
p3539
NsS'onkyo/TX-L5'
p3540
NsS'onkyo/RC-50'
p3541
NsS'onkyo/RC-738M'
p3542
NsS'onkyo/RC-478M'
p3543
NsS'onkyo/RC-651M'
p3544
NsS'onkyo/RC-453S'
p3545
NsS'onkyo/RC-302S'
p3546
NsS'onkyo/Remote_Interactive'
p3547
NsS'onkyo/RC-314S'
p3548
NsS'onkyo/RC-662S'
p3549
NsS'onkyo/RC-211S'
p3550
NsS'onkyo/RC-333c'
p3551
NsS'onkyo/RC-205S'
p3552
NsS'onkyo/RC-217C'
p3553
NsS'onkyo/RC-252S'
p3554
NsS'onkyo/RC-295S'
p3555
NsS'onkyo/RC-283S'
p3556
NsS'onkyo/RC-146T'
p3557
NssS'beon'
p3558
(dp3559
S'beon/Colour_TV'
p3560
NssS'fisher'
p3561
(dp3562
S'fisher/REM_S3'
p3563
NsS'fisher/RCA-9060'
p3564
NsS'fisher/REM-1500'
p3565
NsS'fisher/RC720F'
p3566
NsS'fisher/RCA-9050'
p3567
NsS'fisher/FVH-U908'
p3568
NssS'tivoli'
p3569
(dp3570
S'tivoli/Sirius'
p3571
NssS'philips'
p3572
(dp3573
S'philips/RC380.irman'
p3574
NsS'philips/RC-5'
p3575
NsS'philips/RD_6830'
p3576
NsS'philips/RC282425'
p3577
NsS'philips/RC2050_01'
p3578
NsS'philips/RC2034302-01'
p3579
NsS'philips/FR731'
p3580
NsS'philips/RC2580'
p3581
NsS'philips/RC19237006'
p3582
NsS'philips/TV3'
p3583
NsS'philips/TV2'
p3584
NsS'philips/TV1'
p3585
NsS'philips/RC19042002'
p3586
NsS'philips/TV4'
p3587
NsS'philips/SBC_RU_520'
p3588
NsS'philips/RT260_95'
p3589
NsS'philips/313911877610'
p3590
NsS'philips/SBC_RU12'
p3591
NsS'philips/SBC_RU_4'
p3592
NsS'philips/28PT7207'
p3593
NsS'philips/RC4347'
p3594
NsS'philips/U352'
p3595
NsS'philips/TIVO'
p3596
NsS'philips/FW_362'
p3597
NsS'philips/BDP3000'
p3598
NsS'philips/AZ2407'
p3599
NsS'philips/LCD_TV_DISCRETE'
p3600
NsS'philips/SRU_530'
p3601
NsS'philips/RC-7843'
p3602
NsS'philips/RC2143601'
p3603
NsS'philips/RC5910'
p3604
NsS'philips/HV92'
p3605
NsS'philips/RT174_101'
p3606
NsS'philips/DVP-5982'
p3607
NsS'philips/VR175'
p3608
NsS'philips/RC2592'
p3609
NsS'philips/N9250UD'
p3610
NsS'philips/RC25271'
p3611
NsS'philips/RT192_101'
p3612
NsS'philips/SBS_RU_880_00'
p3613
NsS'philips/RC7507'
p3614
NsS'philips/RC5991'
p3615
NsS'philips/MZ7'
p3616
NsS'philips/RC7535.irman'
p3617
NsS'philips/RD5860'
p3618
NsS'philips/TIVO.irman'
p3619
NsS'philips/RC8244'
p3620
NsS'philips/RC5260'
p3621
NsS'philips/RC283501'
p3622
NsS'philips/RC_7537'
p3623
NsS'philips/RC5-BP6'
p3624
NsS'philips/RC4330_01H'
p3625
NsS'philips/FW2015'
p3626
NsS'philips/RC5903'
p3627
NsS'philips/RC5901'
p3628
NsS'philips/26PFL5604H'
p3629
NsS'philips/VCR1'
p3630
NsS'philips/FW11'
p3631
NsS'philips/SBC_RU_540'
p3632
NsS'philips/RC-J20PHIL-00-00'
p3633
NsS'philips/RC7535'
p3634
NsS'philips/PHDVD5'
p3635
NsS'philips/RM2517'
p3636
NsS'philips/uDigital-20CT6555'
p3637
NsS'philips/RC7843'
p3638
NsS'philips/29PT5507'
p3639
NsS'philips/RC-2012'
p3640
NsS'philips/RC19041003'
p3641
NsS'philips/RCLE012'
p3642
NsS'philips/FA920'
p3643
NsS'philips/NO314UD.irman'
p3644
NsS'philips/RCLE011'
p3645
NsS'philips/DVDR3570H'
p3646
NsS'philips/SRU_510'
p3647
NsS'philips/RD6831'
p3648
NsS'philips/RC2582'
p3649
NsS'philips/RC4492_01B'
p3650
NsS'philips/RD6834'
p3651
NsS'philips/R-48F01'
p3652
NsS'philips/DVP-642'
p3653
NsS'philips/VCR2'
p3654
NsS'philips/RC2563_01'
p3655
NsS'philips/SBC_RU_760'
p3656
NsS'philips/RC07104_01'
p3657
NsS'philips/VR510'
p3658
NsS'philips/RCL9BC_JJ03'
p3659
NsS'philips/RC07102_01'
p3660
NsS'philips/RT183_201'
p3661
NsS'philips/PM335'
p3662
NsS'philips/RC8243_01'
p3663
NsS'philips/RC9050'
p3664
NsS'philips/RT8967_01'
p3665
NsS'philips/VCR5'
p3666
NsS'philips/VCR4'
p3667
NsS'philips/RC2543_01'
p3668
NsS'philips/RC19335003_01P'
p3669
NsS'philips/RT167_101'
p3670
NsS'philips/RC5371'
p3671
NsS'philips/VCR3'
p3672
NsS'philips/SRM5100'
p3673
NsS'philips/15PF4121'
p3674
NsS'philips/RD6835'
p3675
NsS'philips/HTS3544'
p3676
NsS'philips/N0340UD'
p3677
NsS'philips/5373'
p3678
NsS'philips/RT567_104'
p3679
NsS'philips/VR610'
p3680
NsS'philips/RC9076'
p3681
NsS'philips/RT750_114'
p3682
NsS'philips/VR1000'
p3683
NsS'philips/SBC_RP420'
p3684
NsS'philips/SBC_RU_865'
p3685
NsS'philips/RC19039001'
p3686
NsS'philips/KW-1009-01'
p3687
NsS'philips/AV5662_67'
p3688
NsS'philips/CL304'
p3689
NsS'philips/RC4302'
p3690
NsS'philips/PMDVD6T'
p3691
NsS'philips/TV'
p3692
NsS'philips/RC282422S'
p3693
NsS'philips/17PT1563_43'
p3694
NsS'philips/RC6830'
p3695
NsS'philips/TIVO34'
p3696
NsS'philips/RC19002'
p3697
NsS'philips/RT952'
p3698
NsS'philips/RD6844'
p3699
NsS'philips/VR6000'
p3700
NsS'philips/FW_530C'
p3701
NsS'philips/SRP5004_86'
p3702
NsS'philips/RC4496_01'
p3703
NsS'philips/RC331702_01'
p3704
NsS'philips/Gold_BOX'
p3705
NsS'philips/RD5862'
p3706
NsS'philips/RC8205_01'
p3707
NsS'philips/SRU_5060'
p3708
NsS'philips/DVD-712'
p3709
NsS'philips/RC_7540_00N'
p3710
NsS'philips/SBC_RU_422_III'
p3711
NsS'philips/RC9901'
p3712
NsS'philips/RT736.irman'
p3713
NsS'philips/RT111_101'
p3714
NsS'philips/RT150_211'
p3715
NsS'philips/C380'
p3716
NsS'philips/RH6640_01'
p3717
NsS'philips/RC0786_01'
p3718
NsS'philips/VR522'
p3719
NsS'philips/RH6822_00'
p3720
NsS'philips/RT25184_101'
p3721
NsS'philips/SBC_RU_510_U'
p3722
NsS'philips/RC0797_01'
p3723
NsS'philips/CD720'
p3724
NsS'philips/RC2525_01'
p3725
NsS'philips/DVD-724'
p3726
NsS'philips/RC-S224'
p3727
NsS'philips/32PFL5403D-12'
p3728
NsS'philips/RC7925_01'
p3729
NsS'philips/STO_130A'
p3730
NsS'philips/SBC_RU_258_II'
p3731
NsS'philips/PM725S'
p3732
NsS'philips/RC19420002_01'
p3733
NsS'philips/32PFL9613D'
p3734
NsS'philips/RC5932'
p3735
NsS'philips/RC2070'
p3736
NsS'philips/AV5609'
p3737
NsS'philips/RC8861'
p3738
NsS'philips/RC8601_01'
p3739
NsS'philips/RC5300'
p3740
NsS'philips/DVD711'
p3741
NsS'philips/VR256'
p3742
NsS'philips/N9201PD'
p3743
NsS'philips/AV5680'
p3744
NsS'philips/SBC_RU_545_00'
p3745
NssS'samsung'
p3746
(dp3747
S'samsung/SV-610X'
p3748
NsS'samsung/00011k'
p3749
NsS'samsung/BN59-00937A.irman'
p3750
S'samsung/BN59-00937A.jpg'
p3751
sS'samsung/10095T'
p3752
NsS'samsung/00025G'
p3753
NsS'samsung/ARH-700'
p3754
NsS'samsung/00049C'
p3755
NsS'samsung/00093G.irman'
p3756
NsS'samsung/AA59-00332D'
p3757
NsS'samsung/BN59-00678A'
p3758
NsS'samsung/AH59-01527F'
p3759
NsS'samsung/SV-DVD3E'
p3760
NsS'samsung/AA59-00316b'
p3761
NsS'samsung/AH59-00043E'
p3762
NsS'samsung/SV-70XK'
p3763
NsS'samsung/BN59-00856A'
p3764
NsS'samsung/SMT1000T'
p3765
NsS'samsung/BN59-00940A'
p3766
NsS'samsung/BN59-00685A'
p3767
NsS'samsung/T-59'
p3768
NsS'samsung/SFT-702E'
p3769
NsS'samsung/VXK-336'
p3770
NsS'samsung/SVR-80D'
p3771
NsS'samsung/BN59-00538A'
p3772
NsS'samsung/AA59-00600A.conf'
p3773
S'samsung/AA59-00600A.jpg'
p3774
sS'samsung/00225A'
p3775
NsS'samsung/AA59-00370A'
p3776
NsS'samsung/BN59-00599A'
p3777
NsS'samsung/00077A'
p3778
NsS'samsung/BN59-00861A'
p3779
NsS'samsung/10329K'
p3780
NsS'samsung/BN59-00609A'
p3781
NsS'samsung/RCD-M70'
p3782
NsS'samsung/SIR-S300W'
p3783
NsS'samsung/AA64-50236A'
p3784
NsS'samsung/AA59-00382A'
p3785
NsS'samsung/CS-25M6HNQ'
p3786
NsS'samsung/BN59-00603A'
p3787
NsS'samsung/00104J'
p3788
NsS'samsung/00104K'
p3789
NsS'samsung/10107N'
p3790
NsS'samsung/00056A'
p3791
NsS'samsung/TM-59'
p3792
NsS'samsung/PR3914'
p3793
NsS'samsung/00071F'
p3794
NsS'samsung/528Z'
p3795
NsS'samsung/10420A'
p3796
NsS'samsung/AH64-01045A'
p3797
NsS'samsung/00052B'
p3798
NsS'samsung/SMT-H3050'
p3799
NsS'samsung/SVR-40D'
p3800
NsS'samsung/BN59-00603A-STB'
p3801
NsS'samsung/BRM-E1E'
p3802
NsS'samsung/BN59-00865A'
p3803
NsS'samsung/0070-63'
p3804
NsS'samsung/MF59-00291a'
p3805
NsS'samsung/10419K'
p3806
NsS'samsung/SV-411X'
p3807
NsS'samsung/TM-33'
p3808
NsS'samsung/BN59-00683A'
p3809
NsS'samsung/BN59-00634A'
p3810
NsS'samsung/BN59-00869A'
p3811
NsS'samsung/VR8708'
p3812
NsS'samsung/10116A'
p3813
NsS'samsung/00008E'
p3814
NsS'samsung/10141A'
p3815
NsS'samsung/633-205'
p3816
NsS'samsung/lircd.conf.samsung'
p3817
NsS'samsung/BN59-00516A'
p3818
NsS'samsung/MF59-00242B'
p3819
NsS'samsung/MF59-00242C'
p3820
NsS'samsung/00021C'
p3821
NsS'samsung/00054d'
p3822
NsS'samsung/01043A'
p3823
NsS'samsung/PR_427'
p3824
NsS'samsung/HLN507W'
p3825
NsS'samsung/BN59-00507A'
p3826
NsS'samsung/Dynaflat_TV'
p3827
NsS'samsung/00092M'
p3828
NsS'samsung/SCM-8900'
p3829
NsS'samsung/AA59-10026E'
p3830
NsS'samsung/3F14-00048-180'
p3831
NsS'samsung/00092B'
p3832
NsS'samsung/00198F'
p3833
NsS'samsung/AA59-00489A'
p3834
NssS'xlogic'
p3835
(dp3836
S'xlogic/KF8000D'
p3837
NssS'luxor'
p3838
(dp3839
S'luxor/DV405'
p3840
NssS'dvico'
p3841
(dp3842
S'dvico/FusionRemote'
p3843
NsS'dvico/lircd.conf.fusionHDTV'
p3844
NssS'golden_interstart'
p3845
(dp3846
S'golden_interstart/DSR-8001'
p3847
NssS'meliconi'
p3848
(dp3849
S'meliconi/Speedy'
p3850
NsS'meliconi/Speedy2'
p3851
NsS'meliconi/Facile'
p3852
NsS'meliconi/Universal_3'
p3853
NsS'meliconi/Control_4'
p3854
Nsss.